(dp0
L20130914192826L
(lp1
F1274.0797508011854
aF1249.1329942607176
aF0.019971257388195187
asL20131223024392L
(lp2
F1305.7149301034474
aF1256.9261645158715
aF0.038815936023074024
asL20130331291071L
(lp3
F1297.83743327546
aF1255.2652148126826
aF0.03391491930183866
asL20130712776127L
(lp4
F1310.4648965125843
aF1258.7690824825013
aF0.04106854446101452
asL20131107540416L
(lp5
F1282.2704324527267
aF1247.7888083587823
aF0.027634182854467303
asL20130102726083L
(lp6
F1347.1639482841306
aF1254.0257124351747
aF0.07427139246458678
asL20131216420296L
(lp7
F1314.1990798237573
aF1255.009975185499
aF0.04716225831552444
asL20131027709385L
(lp8
F1304.9730484282604
aF1257.9480089052704
aF0.03738233948469268
asL20130918575562L
(lp9
F1278.701043131339
aF1249.297006709132
aF0.023536465919871633
asL20130505125325L
(lp10
F1322.0805015153096
aF1255.3736242391938
aF0.053137070899145954
asL20130330217934L
(lp11
F1282.6157587194052
aF1250.077226632685
aF0.02602921755031783
asL20131204615637L
(lp12
F1304.3016733865113
aF1256.9261645158715
aF0.03769156073609731
asL20130501733850L
(lp13
F1306.800552478051
aF1256.0508721739657
aF0.04040415991770151
asL20130421984731L
(lp14
F1304.4477264106101
aF1252.863984692509
aF0.04117265908219196
asL20130406813153L
(lp15
F1292.76701478676
aF1255.0570447302873
aF0.030046419176569448
asL20130514824676L
(lp16
F1313.5216099346148
aF1257.4239478310553
aF0.044613165035009075
asL20130730290664L
(lp17
F1338.903197222311
aF1255.3736242391938
aF0.06653761985300555
asL20131210030569L
(lp18
F1289.8908241855224
aF1247.7888083587823
aF0.03374129944482912
asL20130808073709L
(lp19
F1311.0753167221826
aF1258.7690824825013
aF0.041553478686118306
asL20131127086581L
(lp20
F1324.2938058083791
aF1255.1378290780915
aF0.05509831281324956
asL20130922900983L
(lp21
F1283.9714538347291
aF1249.4322680194427
aF0.02764390411497592
asL20131206712824L
(lp22
F1300.5517159755684
aF1256.9261645158715
aF0.03470812581620504
asL20130512678396L
(lp23
F1314.1003896216214
aF1253.739554874681
aF0.048144636190387856
asL20131219738110L
(lp24
F1296.3296928740626
aF1256.9261645158715
aF0.031349119360060525
asL20131113020932L
(lp25
F1276.820718275164
aF1249.1329942607176
aF0.022165553341125944
asL20130521380971L
(lp26
F1327.284299345941
aF1252.1828666600104
aF0.05997640974456965
asL20130409999892L
(lp27
F1292.5521143854307
aF1254.626538400769
aF0.030228577846762406
asL20130801438231L
(lp28
F1322.206860010591
aF1255.364570172599
aF0.05324532126058161
asL20130714922522L
(lp29
F1286.8555074638443
aF1248.5783297747319
aF0.030656609021893273
asL20130118897182L
(lp30
F1299.892468638322
aF1256.0508721739657
aF0.03490431592828369
asL20131212149529L
(lp31
F1293.2432818818968
aF1248.4143173263176
aF0.035908723517035376
asL20130125408797L
(lp32
F1291.9253588447689
aF1248.0328618767926
aF0.035169343940167345
asL20131228323375L
(lp33
F1300.6027483462767
aF1259.8756934275032
aF0.03232624863805034
asL20130910899763L
(lp34
F1335.5217453661012
aF1253.076151898696
aF0.06579455952655494
asL20130819010101L
(lp35
F1281.995482827619
aF1250.2280759147698
aF0.025409289332752875
asL20130418757177L
(lp36
F1402.9890104276815
aF1255.088565755595
aF0.11784064384575653
asL20131013576819L
(lp37
F1280.941309187212
aF1248.5783297747319
aF0.02591986312810594
asL20130626408019L
(lp38
F1328.9126186784458
aF1255.7423740970332
aF0.05826851597169931
asL20130928373340L
(lp39
F1331.3764856076277
aF1253.7016608662316
aF0.06195638656785983
asL20130611064424L
(lp40
F1425.3340355072862
aF1272.4999900429257
aF0.1201053411868435
asL20130927321893L
(lp41
F1282.4835108616721
aF1249.218416139036
aF0.02662872584399508
asL20130201906808L
(lp42
F1336.782144362806
aF1254.1043030052706
aF0.06592580948762444
asL20131220827784L
(lp43
F1297.0121976140006
aF1255.8614899228903
aF0.03276691579549661
asL20130716077705L
(lp44
F1310.8004589942286
aF1258.618378008746
aF0.04145981172469417
asL20130523590293L
(lp45
F1301.822978356632
aF1257.4502255900868
aF0.03528788007948559
asL20130822352545L
(lp46
F1314.5349465039537
aF1258.7440640738112
aF0.044322657816220745
asL20130712702634L
(lp47
F1304.7798306130273
aF1258.7690824825013
aF0.0365521752725172
asL20130219208371L
(lp48
F1294.6338620972847
aF1247.7888083587823
aF0.03754245383889744
asL20130115661496L
(lp49
F1303.26172119393
aF1254.626538400769
aF0.03876466924982685
asL20131231518394L
(lp50
F1327.064539532039
aF1254.9245533071808
aF0.05748551658722682
asL20130516946621L
(lp51
F1279.4343126928477
aF1249.297006709132
aF0.02412341166421488
asL20130325843647L
(lp52
F1327.6051089536895
aF1252.792201979821
aF0.05971693219006296
asL20131223998147L
(lp53
F1290.4948875776656
aF1255.2652148126826
aF0.028065521412732
asL20130222411464L
(lp54
F1302.202593835208
aF1257.4239478310553
aF0.03561141497375799
asL20130301939401L
(lp55
F1329.1792316165797
aF1252.913878110362
aF0.060870387692760416
asL20130810310345L
(lp56
F1294.8046770228439
aF1254.3811253172935
aF0.03222589282449966
asL20131205631456L
(lp57
F1309.6963130375066
aF1257.7779799818518
aF0.04127781999841013
asL20131115224785L
(lp58
F1309.0915796775914
aF1257.615621999218
aF0.04093139173680314
asL20130125410005L
(lp59
F1337.874856135739
aF1255.3018415265058
aF0.06577941008102133
asL20131206737628L
(lp60
F1299.4280985903524
aF1255.6674274602726
aF0.03485052663872203
asL20131109752543L
(lp61
F1272.3609778567704
aF1246.9272326711596
aF0.020397136672624314
asL20130212630251L
(lp62
F1303.235300900725
aF1258.7690824825013
aF0.03532515934577048
asL20131125898990L
(lp63
F1287.4099081801332
aF1254.1771098000572
aF0.026497691689951225
asL20130416578288L
(lp64
F1334.1867328118365
aF1252.5330384167503
aF0.06519085077252698
asL20130916388603L
(lp65
F1339.6863294137302
aF1254.0257124351747
aF0.06830850127643105
asL20131108663036L
(lp66
F1285.7055391633214
aF1247.958289365927
aF0.03024720466945528
asL20130424155904L
(lp67
F1292.3791776748121
aF1249.3687894218199
aF0.034425694492413644
asL20130622074625L
(lp68
F1287.2657924625364
aF1249.3687894218199
aF0.03033291960034828
asL20130516020997L
(lp69
F1328.4951460678083
aF1253.4029187028905
aF0.05991068493970678
asL20130223533839L
(lp70
F1284.0505514546464
aF1248.499739204636
aF0.028474825531528223
asL20130903322384L
(lp71
F1310.8986401382217
aF1253.8997402869215
aF0.04545730254179452
asL20130629660437L
(lp72
F1282.505834345215
aF1249.218416139036
aF0.026646595804327378
asL20130422050592L
(lp73
F1346.820545605227
aF1251.088006274739
aF0.07651942856965178
asL20130905493280L
(lp74
F1283.2147221048813
aF1248.499739204636
aF0.02780535855166515
asL20130719338273L
(lp75
F1341.1438800732885
aF1261.6920756414663
aF0.06297242089867888
asL20130628611882L
(lp76
F1340.0840637143174
aF1254.0257124351747
aF0.06862566726166022
asL20130721541932L
(lp77
F1308.1194052068604
aF1254.1917430662181
aF0.04299794065682589
asL20130104823598L
(lp78
F1285.9788773193093
aF1247.8769454723517
aF0.030533404744115242
asL20130929454900L
(lp79
F1304.4036404158164
aF1260.9199124463128
aF0.034485717562458676
asL20131215404872L
(lp80
F1329.3154326692713
aF1253.5417734469897
aF0.06044765386152162
asL20130210516811L
(lp81
F1360.2621889926309
aF1248.7515388111926
aF0.08929770792322386
asL20131102183248L
(lp82
F1274.0099280535587
aF1248.5783297747319
aF0.02036844439180298
asL20130522427217L
(lp83
F1343.088960134505
aF1255.942504000306
aF0.06938729747311573
asL20130713792344L
(lp84
F1348.2731429275693
aF1265.6869343925616
aF0.06525010750359299
asL20130406780765L
(lp85
F1307.4669409682333
aF1258.7690824825013
aF0.03868688797924061
asL20131224031070L
(lp86
F1328.711718343916
aF1255.088565755595
aF0.05865972696834973
asL20130925154144L
(lp87
F1311.8352435011698
aF1258.4630745786583
aF0.04241059590912578
asL20130215874403L
(lp88
F1339.0489329750299
aF1253.9937053703234
aF0.06782747572053273
asL20131010301802L
(lp89
F1277.2513275596298
aF1248.5783297747319
aF0.022964516603512643
asL20130223492980L
(lp90
F1268.2355973442109
aF1248.499739204636
aF0.015807659000511905
asL20130826612600L
(lp91
F1314.127092260174
aF1256.3592732380741
aF0.04598033401163365
asL20131219664762L
(lp92
F1306.4532055371665
aF1256.0508721739657
aF0.040127621006277175
asL20131112929448L
(lp93
F1297.8943461939734
aF1255.5548280454711
aF0.03372175965777014
asL20130413301632L
(lp94
F1301.927990101908
aF1259.1161613239296
aF0.03400149254931561
asL20130316128130L
(lp95
F1304.3320503703885
aF1257.9480089052704
aF0.03687278101857631
asL20130709467011L
(lp96
F1277.3724343357972
aF1254.8670817551274
aF0.017934451311921024
asL20130113507220L
(lp97
F1340.8279115433866
aF1249.297006709132
aF0.0732659282322009
asL20130727079829L
(lp98
F1319.065017180448
aF1259.266865797685
aF0.047486480433107874
asL20130408935320L
(lp99
F1327.964375458079
aF1252.9812030483677
aF0.05984381268233352
asL20130129637278L
(lp100
F1302.556723427826
aF1256.9261645158715
aF0.03630329306537266
asL20131209916318L
(lp101
F1307.1914670452136
aF1259.266865797685
aF0.03805754169285677
asL20130920763295L
(lp102
F1335.6984884810538
aF1247.5052288366578
aF0.07069570339728298
asL20130403536801L
(lp103
F1281.4839515738481
aF1249.3687894218199
aF0.02570510999149452
asL20130630700962L
(lp104
F1274.8898743269156
aF1248.5783297747319
aF0.02107320295790399
asL20130405724074L
(lp105
F1323.6784007527897
aF1252.53315231563
aF0.056801090099395185
asL20130923982766L
(lp106
F1330.2667640091204
aF1251.5628262512055
aF0.06288452813324288
asL20130602315699L
(lp107
F1283.8012497545997
aF1248.5783297747319
aF0.028210420716033666
asL20130713808820L
(lp108
F1330.3015370980631
aF1255.009975185499
aF0.05999279958028672
asL20131223965622L
(lp109
F1286.416256298685
aF1255.0570447302873
aF0.02498628385065707
asL20130815750071L
(lp110
F1304.0437067396028
aF1256.3592732380741
aF0.03795445659316014
asL20130130743226L
(lp111
F1301.788221489776
aF1256.5486554891495
aF0.03600303561903517
asL20131206713279L
(lp112
F1309.162234865851
aF1259.266865797685
aF0.03962255374404652
asL20130815681374L
(lp113
F1276.645828320051
aF1249.1329942607176
aF0.022025544266098238
asL20130614398915L
(lp114
F1298.5468402380804
aF1248.6501124874198
aF0.039960535983344425
asL20130312802250L
(lp115
F1289.9776820194757
aF1248.5783297747319
aF0.033157192670653715
asL20130417651659L
(lp116
F1274.1397529848216
aF1254.844154672068
aF0.015376888230232963
asL20130829946829L
(lp117
F1322.8249463181141
aF1259.266865797685
aF0.050472288477286374
asL20131221893072L
(lp118
F1332.8914086741725
aF1256.5486554891495
aF0.06075590694520638
asL20130723639249L
(lp119
F1364.4400233432375
aF1253.7015974194826
aF0.08832917350643077
asL20130121036645L
(lp120
F1339.377358742664
aF1254.1043030052706
aF0.06799518631189565
asL20130314964968L
(lp121
F1327.8674311371576
aF1251.7922460248594
aF0.060773011938586016
asL20130927267816L
(lp122
F1301.588585466654
aF1257.1055156967154
aF0.03538531110913554
asL20130806894579L
(lp123
F1308.8699946283643
aF1256.9261645158715
aF0.04132607911181479
asL20130325852160L
(lp124
F1325.9135732233706
aF1253.0000296434732
aF0.0581911746647317
asL20130517094400L
(lp125
F1305.2582000412826
aF1258.113405314402
aF0.03747261139396194
asL20130712760321L
(lp126
F1301.708032422723
aF1256.5486554891495
aF0.035939218697419846
asL20130602332171L
(lp127
F1271.4336516460367
aF1252.5654130399275
aF0.015063675245763521
asL20130916372821L
(lp128
F1289.3458743729793
aF1248.499739204636
aF0.032716174369699626
asL20130322616338L
(lp129
F1334.9769479519719
aF1255.3018415265058
aF0.06347087512321134
asL20130301956123L
(lp130
F1330.2367402879843
aF1255.088565755595
aF0.059874798147928426
asL20130319372317L
(lp131
F1281.4191311616
aF1248.499739204636
aF0.026367159658307642
asL20130125377566L
(lp132
F1330.0840211153889
aF1254.0257124351747
aF0.06065131514131207
asL20130607796257L
(lp133
F1312.5966845678472
aF1258.618378008746
aF0.04288695247283769
asL20130114564137L
(lp134
F1289.1850081474934
aF1254.844154672068
aF0.027366628236316495
asL20130912079923L
(lp135
F1352.7258226948752
aF1261.4946723293779
aF0.07231988558226489
asL20130104889397L
(lp136
F1338.0793291161842
aF1254.0257124351747
aF0.06702702811235586
asL20130203021367L
(lp137
F1296.9519824092908
aF1258.7690824825013
aF0.03033352221480254
asL20130927292481L
(lp138
F1283.8911248561208
aF1248.0328618767926
aF0.02873182595961816
asL20131002658883L
(lp139
F1283.6607425733073
aF1249.218416139036
aF0.027571100449129093
asL20130707288135L
(lp140
F1299.2707185385948
aF1256.9261645158715
aF0.03368897491208887
asL20130817871956L
(lp141
F1321.05731537072
aF1257.2234025619853
aF0.050773723014265616
asL20130623148120L
(lp142
F1282.9137414849781
aF1248.5783297747319
aF0.027499605664661062
asL20131017920617L
(lp143
F1285.5577150365214
aF1248.7515388111926
aF0.029474379074934384
asL20131111858283L
(lp144
F1299.7281800486892
aF1256.0508721739657
aF0.03477351820880238
asL20130303070325L
(lp145
F1317.9305984345863
aF1255.364570172599
aF0.04983893105521134
asL20130731430008L
(lp146
F1344.931480659131
aF1255.6674274602726
aF0.07108892947824959
asL20130918510718L
(lp147
F1304.0134741098975
aF1256.1652107754564
aF0.038090740711489185
asL20130612220031L
(lp148
F1298.847516537828
aF1257.4239478310553
aF0.032943200086354776
asL20130228908164L
(lp149
F1326.7517658857898
aF1248.5074852931823
aF0.06267025349410198
asL20130513744037L
(lp150
F1328.7753494743556
aF1253.076151898696
aF0.06041069208839227
asL20130123198633L
(lp151
F1289.7236914967261
aF1248.676966300327
aF0.032872172951196064
asL20130422042798L
(lp152
F1309.7352991990404
aF1252.2546493726984
aF0.04590172602284702
asL20130408960175L
(lp153
F1306.9291391639265
aF1257.2801966666682
aF0.0394891629001147
asL20130911940787L
(lp154
F1324.0089434302827
aF1259.1161613239296
aF0.05153836008118573
asL20130510549174L
(lp155
F1304.7914756346313
aF1256.5486554891495
aF0.03839311747677755
asL20130711679158L
(lp156
F1309.5864569814744
aF1258.618378008746
aF0.040495260408770356
asL20131003814073L
(lp157
F1332.492146224892
aF1257.7037576244195
aF0.05946423245306551
asL20130428563647L
(lp158
F1283.3840700406463
aF1247.2456948768363
aF0.02897454391885362
asL20130313842880L
(lp159
F1317.5372619124582
aF1253.8656733146456
aF0.05078023105098184
asL20131021172935L
(lp160
F1279.9664794115156
aF1250.1509449538428
aF0.023849547591050006
asL20130305265865L
(lp161
F1335.9372465303475
aF1255.088565755595
aF0.06441671367317373
asL20130418741454L
(lp162
F1394.504615165632
aF1254.512320110556
aF0.11159100856238623
asL20131224072401L
(lp163
F1285.6141961102683
aF1247.7888083587823
aF0.030313934135406912
asL20131115200725L
(lp164
F1284.682293710422
aF1249.1329942607176
aF0.028459178976970197
asL20130328105177L
(lp165
F1283.1083036968669
aF1248.4143173263176
aF0.027790442555042223
asL20130312819598L
(lp166
F1310.6418208363466
aF1253.076151898696
aF0.04593948169105721
asL20130926178527L
(lp167
F1282.377095825359
aF1255.468672651171
aF0.02143297061914387
asL20130212647138L
(lp168
F1284.6757812994101
aF1249.297006709132
aF0.02831894609551026
asL20130819035368L
(lp169
F1326.0940361530463
aF1251.7459853156738
aF0.05939547776430289
asL20130613260526L
(lp170
F1281.830830585064
aF1248.4143173263176
aF0.02676716599206685
asL20130517102842L
(lp171
F1320.926719292763
aF1258.4630745786583
aF0.04963486492046494
asL20131219730685L
(lp172
F1311.5072263235306
aF1259.266865797685
aF0.041484741594271804
asL20130226671885L
(lp173
F1321.3559998891506
aF1255.1378290780915
aF0.05275768865933777
asL20130326909203L
(lp174
F1321.112532957966
aF1252.713611409725
aF0.05460060537800756
asL20130322567451L
(lp175
F1291.1574319010642
aF1248.6501124874198
aF0.03404261849539748
asL20131230454050L
(lp176
F1276.4042927143212
aF1248.4143173263176
aF0.022420421649720162
asL20130108166436L
(lp177
F1352.2418493852665
aF1253.536671842646
aF0.07874135616433786
asL20131105362215L
(lp178
F1306.3122428262918
aF1258.618378008746
aF0.03789382520617727
asL20130108158249L
(lp179
F1306.9421161664823
aF1254.1917430662181
aF0.0420592572004192
asL20130615472432L
(lp180
F1310.7503718225967
aF1258.618378008746
aF0.041420016364553953
asL20130601242937L
(lp181
F1273.0519409056062
aF1249.4741684141604
aF0.01887015601240546
asL20130830037309L
(lp182
F1305.347116186929
aF1257.615621999218
aF0.03795396093428985
asL20130725859649L
(lp183
F1318.7064305687259
aF1253.076151898696
aF0.05237533135602733
asL20130718224711L
(lp184
F1305.0467262756438
aF1258.4630745786583
aF0.0370163039647246
asL20131209908554L
(lp185
F1282.5035747755962
aF1249.4322680194427
aF0.02646906727371224
asL20130709418318L
(lp186
F1301.7655415144723
aF1248.0215288553484
aF0.04306336983498709
asL20130529055061L
(lp187
F1312.2836117472639
aF1268.291966914178
aF0.03468573954632858
asL20130930512219L
(lp188
F1328.895868923783
aF1253.0000296434732
aF0.060571298870523566
asL20130527859036L
(lp189
F1333.2795304147912
aF1259.5340784664813
aF0.058549786948279385
asL20131120607587L
(lp190
F1289.230415330909
aF1258.113405314402
aF0.024733072459975032
asL20130514768231L
(lp191
F1323.230446975519
aF1256.0533231653012
aF0.05348270059182597
asL20130418705134L
(lp192
F1307.2729326891715
aF1259.1161613239296
aF0.03824648816722852
asL20130727039337L
(lp193
F1298.1083723016197
aF1255.2652148126826
aF0.03413076135892954
asL20130907648365L
(lp194
F1386.2640031933718
aF1284.0778505948713
aF0.07957940599252684
asL20130419782002L
(lp195
F1308.5752868453976
aF1256.0508721739657
aF0.04181710775816189
asL20130906591607L
(lp196
F1293.3984919057662
aF1249.297006709132
aF0.03530104127344812
asL20130909814436L
(lp197
F1294.4272815442762
aF1254.0626512928548
aF0.0321870922555649
asL20130424156539L
(lp198
F1383.3005107740162
aF1255.3395909911821
aF0.10193331007890825
asL20130719306107L
(lp199
F1287.1600308316897
aF1253.7016608662316
aF0.026687665024181618
asL20130324730241L
(lp200
F1278.2726770878514
aF1249.4741684141604
aF0.023048502643509813
asL20130319348099L
(lp201
F1280.7637760650132
aF1248.5783297747319
aF0.02577767491454719
asL20130328080773L
(lp202
F1330.0812266441949
aF1253.4029187028905
aF0.06117610450489178
asL20131115174143L
(lp203
F1302.5454306873269
aF1258.618378008746
aF0.0349010100647645
asL20130610024839L
(lp204
F1424.7668333160104
aF1271.0111042270923
aF0.12097119260214304
asL20130825589128L
(lp205
F1314.3498324718596
aF1256.0508721739657
aF0.0464144897228489
asL20131023401355L
(lp206
F1279.1262817624342
aF1252.2890987976198
aF0.02143050114433008
asL20130515923342L
(lp207
F1300.388988807993
aF1254.944811239542
aF0.036212092485218096
asL20130728112528L
(lp208
F1278.4734265561813
aF1248.4143173263176
aF0.02407783122372399
asL20130606674328L
(lp209
F1339.8001382440846
aF1257.6550624433023
aF0.06531606181522887
asL20130504028572L
(lp210
F1331.9533395828005
aF1255.160348468283
aF0.061181817293886546
asL20130606723485L
(lp211
F1336.656723411157
aF1254.512320110556
aF0.06547915232379851
asL20131114076419L
(lp212
F1304.826594664309
aF1256.5486554891495
aF0.03842106627885872
asL20130207344902L
(lp213
F1302.3601802159005
aF1256.5486554891495
aF0.036458217934201294
asL20130903290283L
(lp214
F1316.9057450419139
aF1253.314781589321
aF0.05073822186310891
asL20130301931952L
(lp215
F1326.363661016702
aF1252.0188542115961
aF0.05937994188747365
asL20130702897585L
(lp216
F1298.261736366478
aF1255.468672651171
aF0.03408532976369786
asL20130918576562L
(lp217
F1305.1361885659892
aF1255.794472262534
aF0.03929123546352081
asL20130224558532L
(lp218
F1280.1977197375122
aF1254.626538400769
aF0.020381508404355854
asL20130729169351L
(lp219
F1282.400146162405
aF1247.7888083587823
aF0.027738137713502233
asL20130708320718L
(lp220
F1304.047856266838
aF1256.5486554891495
aF0.037801322352454335
asL20130725867996L
(lp221
F1285.1323796736801
aF1248.4143173263176
aF0.029411760052544297
asL20131109719176L
(lp222
F1291.7614317100672
aF1250.077226632685
aF0.033345303945474025
asL20130716029409L
(lp223
F1305.9258566007709
aF1258.113405314402
aF0.03800329213916981
asL20130707280358L
(lp224
F1273.1326452063222
aF1255.0236971626332
aF0.01442916821780325
asL20130429645292L
(lp225
F1301.9666161535174
aF1251.5628262512055
aF0.040272680559941154
asL20130811392501L
(lp226
F1318.6964946692226
aF1256.0508721739657
aF0.04987506786793615
asL20130121060856L
(lp227
F1291.840805999324
aF1248.5783297747319
aF0.034649388983386806
asL20130925146619L
(lp228
F1303.9225377498142
aF1259.266865797685
aF0.03546164293288369
asL20130328039933L
(lp229
F1284.3172485381285
aF1249.0728500291386
aF0.028216447509981264
asL20130908729855L
(lp230
F1301.3595319221588
aF1258.0819854845922
aF0.034399623344814674
asL20130623099399L
(lp231
F1291.541358299925
aF1248.499739204636
aF0.03447467207538937
asL20130325787147L
(lp232
F1327.0209694930206
aF1252.1828666600104
aF0.059766113101857414
asL20130819043851L
(lp233
F1285.114212446314
aF1248.676966300327
aF0.02918068253789131
asL20130122101278L
(lp234
F1329.3739033384152
aF1252.4936303272395
aF0.06138176765904118
asL20131118404132L
(lp235
F1308.2514759918868
aF1256.0508721739657
aF0.04155930701084788
asL20130719298093L
(lp236
F1312.4959242358123
aF1255.6674274602726
aF0.04525760207898488
asL20130626425390L
(lp237
F1335.3209081994385
aF1254.9245533071808
aF0.06406469192142603
asL20130809197103L
(lp238
F1338.011508919445
aF1254.2990443396452
aF0.06674043559035975
asL20130509468211L
(lp239
F1334.8801946773951
aF1253.076151898696
aF0.06528257891968285
asL20130808099382L
(lp240
F1331.5994731105823
aF1254.6818011177006
aF0.0613045251189278
asL20130822307443L
(lp241
F1304.6373960974288
aF1258.7690824825013
aF0.036439021464101724
asL20130620871237L
(lp242
F1305.092006958676
aF1256.0508721739657
aF0.039043908070244125
asL20131004868895L
(lp243
F1343.8967229653695
aF1254.2990443396452
aF0.07143246981655402
asL20131119460942L
(lp244
F1280.9296187589414
aF1247.7888083587823
aF0.02655963106749552
asL20131122729551L
(lp245
F1302.2495948170874
aF1258.4630745786583
aF0.03479364720581028
asL20130817913428L
(lp246
F1305.8137265615603
aF1256.5486554891495
aF0.039206656150718576
asL20130819059319L
(lp247
F1272.2044661777297
aF1248.4143173263176
aF0.019056292867869872
asL20131108655703L
(lp248
F1291.8998587934575
aF1249.1329942607176
aF0.03423723873217428
asL20130607755865L
(lp249
F1278.9846729653243
aF1249.218416139036
aF0.023827904265362184
asL20130325819995L
(lp250
F1323.4795238162026
aF1256.0209509697843
aF0.053708158923888145
asL20130823418460L
(lp251
F1286.4125380243872
aF1249.1329942607176
aF0.029844335178843787
asL20130705101413L
(lp252
F1308.43644383754
aF1256.1652107754564
aF0.041611750280694
asL20130819076711L
(lp253
F1279.049882796183
aF1249.297006709132
aF0.023815694688507638
asL20130923967080L
(lp254
F1288.7220998940822
aF1252.7240710475307
aF0.02873580038775009
asL20130813555305L
(lp255
F1323.1459984232824
aF1259.1161613239296
aF0.050853002340965105
asL20130308452972L
(lp256
F1307.7426296599613
aF1257.1055156967154
aF0.04028071894600004
asL20130102719088L
(lp257
F1336.3116621754546
aF1253.6152624127421
aF0.06596633133163413
asL20131206764838L
(lp258
F1308.0218286247537
aF1256.7421263546141
aF0.04080367896863987
asL20131211129458L
(lp259
F1283.3033477431302
aF1251.1600162530642
aF0.02569082377354724
asL20130614375030L
(lp260
F1282.793286280634
aF1249.297006709132
aF0.026812102639817568
asL20130928390775L
(lp261
F1312.7997592419465
aF1257.1055156967154
aF0.04430355515094857
asL20130728161913L
(lp262
F1281.700184678813
aF1249.9189035922143
aF0.025426674478848704
asL20131009221243L
(lp263
F1295.7947914334763
aF1249.218416139036
aF0.03728441295189527
asL20130310673038L
(lp264
F1311.0070479548685
aF1256.0508721739657
aF0.04375314487524302
asL20130830037647L
(lp265
F1307.1142775014453
aF1257.4502255900868
aF0.039495839199561546
asL20130902200982L
(lp266
F1285.5024871523358
aF1248.5074852931823
aF0.02963138170570607
asL20130730311298L
(lp267
F1306.2025535936093
aF1252.8257409967925
aF0.04260513721114022
asL20130626409113L
(lp268
F1520.8739580778633
aF1272.4999900429257
aF0.19518583102429665
asL20130806878883L
(lp269
F1338.027636689955
aF1255.160348468283
aF0.06602127634353482
asL20130711663269L
(lp270
F1516.7203818001515
aF1271.0111042270923
aF0.19331796296341255
asL20130917495466L
(lp271
F1279.7265155288603
aF1249.297006709132
aF0.02435730547364802
asL20130704069298L
(lp272
F1308.5002568189047
aF1256.0508721739657
aF0.0417573728953828
asL20130103808696L
(lp273
F1292.1644963060266
aF1249.1329942607176
aF0.03444909568718632
asL20130316161721L
(lp274
F1293.242735098248
aF1255.6354210136485
aF0.029950822870415568
asL20131202405051L
(lp275
F1291.948130003382
aF1247.8769454723517
aF0.03531693144178427
asL20131202446021L
(lp276
F1290.8910994474124
aF1249.3687894218199
aF0.03323463046072102
asL20130611122890L
(lp277
F1307.435151030065
aF1257.603299011899
aF0.03962446031854323
asL20130619773643L
(lp278
F1349.6929236418232
aF1257.029553475767
aF0.07371614287813368
asL20130924991181L
(lp279
F1292.3019399463776
aF1248.676966300327
aF0.03493695713416254
asL20131021216054L
(lp280
F1334.9403659951447
aF1253.314781589321
aF0.06512776008459326
asL20130320462553L
(lp281
F1326.2290556225337
aF1254.9245533071808
aF0.056819752332871114
asL20130704061151L
(lp282
F1306.1068964561787
aF1255.7629981278665
aF0.04009028646597055
asL20131127096034L
(lp283
F1301.322792259589
aF1256.0508721739657
aF0.0360430624973549
asL20131115234033L
(lp284
F1283.115760231288
aF1248.6501124874198
aF0.02760232622348436
asL20130929464061L
(lp285
F1311.5895544033451
aF1260.6051149561308
aF0.04044441740107374
asL20130918585087L
(lp286
F1335.1503997035734
aF1253.8656733146456
aF0.06482730017965022
asL20130808113470L
(lp287
F1329.7633348067302
aF1258.4630745786583
aF0.05665661684348086
asL20130516980488L
(lp288
F1308.5097199786146
aF1256.5486554891495
aF0.041352210487414595
asL20131030897418L
(lp289
F1308.2723413122837
aF1256.8883320543307
aF0.040881920809916386
asL20131208885003L
(lp290
F1282.0708003383893
aF1247.7888083587823
aF0.027474194150449355
asL20130505085714L
(lp291
F1326.0144011909947
aF1255.160348468283
aF0.05645020001562144
asL20130412253975L
(lp292
F1311.4294196388953
aF1259.266865797685
aF0.04142295430616902
asL20130725819165L
(lp293
F1285.1258194415136
aF1249.218416139036
aF0.028743895253687323
asL20130526778150L
(lp294
F1319.5254622626599
aF1257.366890235935
aF0.0494355088474306
asL20130220282666L
(lp295
F1281.172646363162
aF1248.4143173263176
aF0.02623994981650131
asL20131221846987L
(lp296
F1290.5611172245594
aF1253.3627474594446
aF0.029678853819866315
asL20131214316343L
(lp297
F1312.729434502454
aF1258.7690824825013
aF0.042867554320236416
asL20130823451449L
(lp298
F1281.999233881593
aF1250.1094477831098
aF0.025509595303863354
asL20130831110972L
(lp299
F1326.3949329774512
aF1252.8257409967925
aF0.058722605685068666
asL20130828802378L
(lp300
F1307.248225335002
aF1257.1055156967154
aF0.03988743109642339
asL20131215364942L
(lp301
F1320.5873896399453
aF1253.9937053703234
aF0.053105277948708514
asL20130513695571L
(lp302
F1335.0606609041863
aF1253.0786202135694
aF0.0654244988049068
asL20130813490740L
(lp303
F1315.1727661746474
aF1258.7690824825013
aF0.04480860268740375
asL20130702889817L
(lp304
F1306.9201159203233
aF1256.0508721739657
aF0.04049934988565662
asL20131229343052L
(lp305
F1297.6378087204187
aF1255.468672651171
aF0.033588361850717695
asL20131213259618L
(lp306
F1303.4597442074253
aF1259.266865797685
aF0.03509413263386875
asL20130401391461L
(lp307
F1281.9094800832768
aF1249.1329942607176
aF0.026239388418330484
asL20130211582826L
(lp308
F1283.1215047458888
aF1253.9452925468227
aF0.02326753198284106
asL20130828858222L
(lp309
F1305.32125379646
aF1258.960857893842
aF0.03682433461845335
asL20130416513918L
(lp310
F1309.085026163644
aF1258.618378008746
aF0.04009686258891355
asL20130710549381L
(lp311
F1348.4019464699861
aF1255.5753861522846
aF0.07393149096540416
asL20130309587968L
(lp312
F1314.4170449386088
aF1258.7690824825013
aF0.04420823742060816
asL20130302997388L
(lp313
F1329.348568416513
aF1255.1378290780915
aF0.059125569813260954
asL20130520314765L
(lp314
F1303.340490683598
aF1253.4684673055942
aF0.03978721817008031
asL20130608821139L
(lp315
F1303.7860089387245
aF1258.7690824825013
aF0.035762656616448195
asL20130830037911L
(lp316
F1274.6692517240954
aF1248.5783297747319
aF0.020896503909427
asL20130125351832L
(lp317
F1293.8049907564498
aF1255.1243217159526
aF0.030818197346072128
asL20130323698590L
(lp318
F1337.8928769264483
aF1253.6870451254301
aF0.06716654856443333
asL20131221890051L
(lp319
F1371.843787710711
aF1271.7438553430839
aF0.07871076549500824
asL20130402481059L
(lp320
F1282.3914260764982
aF1249.297006709132
aF0.02649043357155143
asL20130731389861L
(lp321
F1306.775411048788
aF1258.7690824825013
aF0.03813751802007273
asL20131024425895L
(lp322
F1312.0621162011014
aF1253.314781589321
aF0.04687356717941461
asL20130923940930L
(lp323
F1277.704275539864
aF1249.1329942607176
aF0.022872889764677103
asL20130527843245L
(lp324
F1325.7528737061434
aF1257.1074959696032
aF0.054605813708551845
asL20130821182384L
(lp325
F1331.157840746193
aF1253.536671842646
aF0.061921737630098304
asL20131118379957L
(lp326
F1269.0083153834726
aF1250.1928453485605
aF0.015050054161577162
asL20130801447866L
(lp327
F1481.3581555484745
aF1272.4999900429257
aF0.1641321549232416
asL20130415498176L
(lp328
F1294.4970399047158
aF1247.7888083587823
aF0.037432802116063986
asL20130608845775L
(lp329
F1282.4252369954077
aF1249.1329942607176
aF0.026652280331762108
asL20131228333009L
(lp330
F1303.5176113573038
aF1256.3592732380741
aF0.037535710623352425
asL20130506205538L
(lp331
F1306.1593818551594
aF1256.5486554891495
aF0.03948173924606001
asL20130106987477L
(lp332
F1278.0504871867988
aF1248.5956224067518
aF0.02359039568252756
asL20130128565206L
(lp333
F1328.7391252368989
aF1258.6942479687805
aF0.0556488419496263
asL20131117315030L
(lp334
F1339.312943662279
aF1253.9402905568563
aF0.06808350744317329
asL20131212170200L
(lp335
F1272.6126362774569
aF1247.7888083587823
aF0.01989425434206725
asL20130914243549L
(lp336
F1284.391026324135
aF1247.7888083587823
aF0.02933366425484752
asL20130423149536L
(lp337
F1313.4254217914147
aF1257.4239478310553
aF0.044536668843437356
asL20130702914528L
(lp338
F1270.4772576717899
aF1253.6571408569005
aF0.01341683963399474
asL20130307372009L
(lp339
F1328.0846880080755
aF1251.4814823576303
aF0.06121001926942991
asL20130909811690L
(lp340
F1306.7064524845905
aF1257.1055156967154
aF0.03945646261872071
asL20131218625515L
(lp341
F1302.5059672030152
aF1255.8234525837233
aF0.037172832314325346
asL20130519208940L
(lp342
F1295.3097042504444
aF1254.4041911836434
aF0.03260951562048187
asL20130509394962L
(lp343
F1284.2972798764977
aF1247.7888083587823
aF0.02925853419516964
asL20130205185035L
(lp344
F1337.3382662589145
aF1253.1504029262574
aF0.0671809729590864
asL20130915316749L
(lp345
F1303.749564511617
aF1257.4502255900868
aF0.03682001718978841
asL20130709451793L
(lp346
F1283.2370888261232
aF1250.1509449538428
aF0.026465719204413374
asL20130114581523L
(lp347
F1309.1311060473065
aF1259.266865797685
aF0.0395978339492279
asL20131122762771L
(lp348
F1308.4063004273837
aF1256.9261645158715
aF0.04095716786303095
asL20130127500325L
(lp349
F1314.1362470932127
aF1258.7690824825013
aF0.04398516406322766
asL20131113995880L
(lp350
F1334.000616766088
aF1252.4150397571436
aF0.06514260402427342
asL20131206763574L
(lp351
F1301.61978141685
aF1257.4502255900868
aF0.035126285659566034
asL20130402464826L
(lp352
F1271.0088230164001
aF1248.4143173263176
aF0.018098563414806354
asL20131108639803L
(lp353
F1289.1202991971838
aF1249.1329942607176
aF0.032012047652405624
asL20131129234492L
(lp354
F1280.6033165392282
aF1248.5074852931823
aF0.025707359887000576
asL20131007108157L
(lp355
F1294.3982703384702
aF1256.0358703612255
aF0.030542439815999793
asL20131005961286L
(lp356
F1324.7978695942943
aF1253.1889336082804
aF0.05714137275361328
asL20130317171062L
(lp357
F1291.7466951552879
aF1250.1094477831098
aF0.03330688160625918
asL20130225632335L
(lp358
F1282.2498508055326
aF1248.0328618767926
aF0.02741673715008148
asL20130420913235L
(lp359
F1280.9961233760664
aF1248.5074852931823
aF0.026021981017802967
asL20130704053332L
(lp360
F1305.052325209794
aF1256.1285209669657
aF0.038948088054848735
asL20130616530008L
(lp361
F1332.650742935378
aF1254.9245533071808
aF0.06193694228339116
asL20131120526430L
(lp362
F1284.551800962981
aF1250.2280759147698
aF0.027453970766971526
asL20130808075367L
(lp363
F1276.3515275654331
aF1249.4741684141604
aF0.021510936224784526
asL20130728137832L
(lp364
F1322.1562274748849
aF1252.0908176774408
aF0.05595872823938726
asL20130219185261L
(lp365
F1362.9258065394079
aF1268.0051989486108
aF0.07485821640913004
asL20130905502830L
(lp366
F1284.3764446607302
aF1250.7464649228225
aF0.02688792707479913
asL20130111370357L
(lp367
F1363.3613366577176
aF1261.6412314112258
aF0.08062522269719373
asL20130623132795L
(lp368
F1320.3976249165305
aF1253.4842625964657
aF0.053381892630594806
asL20130923975809L
(lp369
F1281.902290182226
aF1249.1329942607176
aF0.026233632505161978
asL20131029819094L
(lp370
F1281.332783975904
aF1247.8769454723517
aF0.026810206426955373
asL20130615481503L
(lp371
F1328.9777734193244
aF1254.1043030052706
aF0.059702745804021976
asL20130126451885L
(lp372
F1278.6457986630837
aF1248.5783297747319
aF0.024081363716905637
asL20130714891437L
(lp373
F1292.5543896688528
aF1254.1771098000572
aF0.03059956968510907
asL20130621953203L
(lp374
F1309.3299013387852
aF1254.695961091434
aF0.04354356907296204
asL20130820158644L
(lp375
F1297.5342347236096
aF1249.297006709132
aF0.038611497310429885
asL20130620863669L
(lp376
F1305.8058885795588
aF1257.603299011899
aF0.03832893059801338
asL20130815685816L
(lp377
F1282.813868339421
aF1249.7548911438
aF0.026452368724370314
asL20131226178745L
(lp378
F1306.2148459605132
aF1257.7779799818518
aF0.03850986958712724
asL20130316121290L
(lp379
F1283.029972178964
aF1248.5074852931823
aF0.027651005134082123
asL20130604504267L
(lp380
F1290.2647241855693
aF1249.1329942607176
aF0.032928223106615605
asL20130326910160L
(lp381
F1327.2962589833771
aF1253.6152624127421
aF0.058774808172665775
asL20130328040658L
(lp382
F1281.271883651464
aF1247.7888083587823
aF0.0268339282003354
asL20131207779538L
(lp383
F1339.512441870974
aF1253.9402905568563
aF0.06824260449922731
asL20130303120611L
(lp384
F1280.9667251427643
aF1248.6501124874198
aF0.025881239533921102
asL20130130719973L
(lp385
F1314.2883578058454
aF1255.8614899228903
aF0.04652333744746206
asL20130901161197L
(lp386
F1337.3140889281303
aF1256.2845391011679
aF0.06449936085732343
asL20131220825704L
(lp387
F1304.9827665101016
aF1258.4630745786583
aF0.03696548025218648
asL20131031037167L
(lp388
F1312.989301229312
aF1249.2129373318387
aF0.051053236795395085
asL20130312795378L
(lp389
F1314.3196889372525
aF1254.0257124351747
aF0.04808033511928063
asL20130620896501L
(lp390
F1290.564248729208
aF1249.1590925048492
aF0.03314642344021364
asL20130417669381L
(lp391
F1310.2806682285704
aF1256.9261645158715
aF0.042448399292610337
asL20130818987276L
(lp392
F1293.269111199568
aF1253.3627474594446
aF0.03183943660445731
asL20131209966865L
(lp393
F1308.6808602606905
aF1258.407998843648
aF0.03994957236702096
asL20131204560146L
(lp394
F1329.6378401747697
aF1253.9402905568563
aF0.060367746525073575
asL20131013580052L
(lp395
F1282.9236498696841
aF1247.7888083587823
aF0.028157682835058255
asL20131222943000L
(lp396
F1308.1616738416535
aF1257.4502255900868
aF0.0403287917243557
asL20131017880858L
(lp397
F1276.469251009063
aF1249.297006709132
aF0.021750027538693685
asL20131226164974L
(lp398
F1296.1178621088059
aF1247.958289365927
aF0.038590691013678236
asL20130127525155L
(lp399
F1284.5583675944615
aF1256.0508721739657
aF0.022696131225286468
asL20130919666986L
(lp400
F1348.076054872472
aF1255.088565755595
aF0.07408838838468436
asL20130720412976L
(lp401
F1342.6715038275759
aF1253.8656733146456
aF0.07082563340151769
asL20130424223028L
(lp402
F1291.5802724349514
aF1248.4143173263176
aF0.03457662613248522
asL20130518127927L
(lp403
F1307.29082044453
aF1257.615621999218
aF0.039499508097986094
asL20130916398392L
(lp404
F1281.575793423708
aF1248.5783297747319
aF0.026428028472134088
asL20130420872508L
(lp405
F1313.7589687557795
aF1258.7690824825013
aF0.04368544400918161
asL20130515909022L
(lp406
F1337.5343918071349
aF1253.076151898696
aF0.0674007240345811
asL20130730292547L
(lp407
F1337.3697573707504
aF1254.6818011177006
aF0.06590352723645901
asL20130124297541L
(lp408
F1281.2346243036197
aF1249.218416139036
aF0.025628991496568207
asL20130820126024L
(lp409
F1273.6580902311805
aF1249.1329942607176
aF0.019633694797228308
asL20130307372362L
(lp410
F1310.7776603662353
aF1256.0508721739657
aF0.0435705188417638
asL20131008189775L
(lp411
F1279.4209887195575
aF1248.499739204636
aF0.024766724848993657
asL20131019052378L
(lp412
F1299.511310828943
aF1258.7690824825013
aF0.03236672151661938
asL20130322642271L
(lp413
F1285.123106435819
aF1248.6501124874198
aF0.02920993926452441
asL20130331309408L
(lp414
F1322.4567209129355
aF1252.2890987976198
aF0.05603148840206853
asL20130619798606L
(lp415
F1285.0070662040478
aF1249.4348758005888
aF0.02847062387358583
asL20131126001401L
(lp416
F1306.2663434965111
aF1257.615621999218
aF0.03868488960080943
asL20130520266083L
(lp417
F1297.426727302662
aF1254.9019744988273
aF0.033886912020214044
asL20130912998759L
(lp418
F1559.6846949870671
aF1347.5295581708012
aF0.15744006172618213
asL20130920763131L
(lp419
F1375.7991295989193
aF1273.7057461779104
aF0.08015460692343342
asL20131010319728L
(lp420
F1308.4143587125122
aF1258.7690824825013
aF0.03943954210577069
asL20131021215111L
(lp421
F1281.7519280476417
aF1249.297006709132
aF0.025978547266355678
asL20130921829769L
(lp422
F1291.7445778386082
aF1247.7888083587823
aF0.035226930379060675
asL20130922870159L
(lp423
F1323.5311566918936
aF1251.3933452440608
aF0.05764599254262745
asL20130710582672L
(lp424
F1284.1286658855265
aF1247.958289365927
aF0.028983642184048742
asL20130823435666L
(lp425
F1291.9441380221087
aF1248.5783297747319
aF0.03473214872726562
asL20130501809560L
(lp426
F1308.871062996873
aF1258.618378008746
aF0.03992686414418281
asL20130729203096L
(lp427
F1273.3017127119006
aF1255.8614899228903
aF0.013887059145416646
asL20130802578845L
(lp428
F1279.9783904534088
aF1248.4143173263176
aF0.02528333157432126
asL20130522510754L
(lp429
F1294.8196989149544
aF1255.2652148126826
aF0.03151085813221894
asL20130714924471L
(lp430
F1301.2085575118547
aF1248.499739204636
aF0.04221772472359281
asL20130207266234L
(lp431
F1291.2459625759666
aF1249.3687894218199
aF0.033518664391741795
asL20130708370874L
(lp432
F1283.9208631386086
aF1249.297006709132
aF0.027714671726207105
asL20130724812228L
(lp433
F1287.3245718311734
aF1253.7353401071664
aF0.02679132560874923
asL20130719356361L
(lp434
F1306.1343180696595
aF1258.113405314402
aF0.03816898584214445
asL20130213737932L
(lp435
F1260.681807583078
aF1247.552741638695
aF0.010523856432023556
asL20130107094477L
(lp436
F1302.2292944729372
aF1254.944811239542
aF0.03767853598812126
asL20130215900630L
(lp437
F1309.0893520025847
aF1258.7690824825013
aF0.03997577492199248
asL20130618652119L
(lp438
F1301.8157389827993
aF1256.0508721739657
aF0.036435520107258125
asL20131024434652L
(lp439
F1292.1994299573314
aF1248.4143173263176
aF0.03507258129239239
asL20131026589149L
(lp440
F1282.0508970796166
aF1256.3592732380741
aF0.020449265101793842
asL20131105379513L
(lp441
F1280.929335543174
aF1254.9019744988273
aF0.020740553105545366
asL20130816849385L
(lp442
F1285.5696887814665
aF1249.1329942607176
aF0.02916958777661099
asL20130221348331L
(lp443
F1351.3094748492092
aF1253.7016608662316
aF0.07785569488321215
asL20130122151404L
(lp444
F1333.6367496372948
aF1251.398769941968
aF0.0657168455576637
asL20131014604277L
(lp445
F1293.3028151682174
aF1250.077226632685
aF0.03457833453375394
asL20130802554359L
(lp446
F1299.5308780039545
aF1255.2623965430944
aF0.035266316893402094
asL20131017848313L
(lp447
F1300.5123736335156
aF1259.266865797685
aF0.032753587786734505
asL20131002717699L
(lp448
F1311.3869696005468
aF1259.6058050965705
aF0.04110902339006474
asL20130506182422L
(lp449
F1322.8644618498392
aF1255.2253500808974
aF0.053886030715187966
asL20130426418703L
(lp450
F1311.7021491362118
aF1259.266865797685
aF0.04163953230462508
asL20131031045651L
(lp451
F1286.3839813449563
aF1249.1329942607176
aF0.02982147397866562
asL20130118866453L
(lp452
F1328.7448206096083
aF1257.4540969409125
aF0.056694493931929
asL20130424215066L
(lp453
F1293.4533427681736
aF1248.5783297747319
aF0.03594088726619022
asL20130915309083L
(lp454
F1323.1671142171463
aF1255.1378290780915
aF0.05420064917414114
asL20130212681247L
(lp455
F1329.7710714220868
aF1253.8656733146456
aF0.06053710514841846
asL20130411197989L
(lp456
F1386.4158379379583
aF1269.5923974833145
aF0.09201649339285614
asL20130820167209L
(lp457
F1300.1977760343643
aF1249.1329942607176
aF0.04088018009953272
asL20130625312299L
(lp458
F1320.8290777475047
aF1253.708739241244
aF0.05353742572368321
asL20130923918894L
(lp459
F1289.0799591582588
aF1248.5783297747319
aF0.03243819664148284
asL20130317178420L
(lp460
F1287.0989660636897
aF1248.896171759461
aF0.03058924766372545
asL20130415474229L
(lp461
F1291.2793505809316
aF1248.4143173263176
aF0.03433558287477545
asL20131008181820L
(lp462
F1286.2788416968378
aF1249.297006709132
aF0.029602116061354065
asL20130606642755L
(lp463
F1304.9665675626418
aF1255.9664559663545
aF0.0390138696487607
asL20130930554438L
(lp464
F1293.7401934110624
aF1248.5074852931823
aF0.03622942485383517
asL20130624239175L
(lp465
F1365.3556451746656
aF1253.8400402216596
aF0.08893925969479469
asL20130512680520L
(lp466
F1334.1398642364531
aF1252.1828666600104
aF0.0654513008910986
asL20131102176843L
(lp467
F1274.4848031798947
aF1248.4143173263176
aF0.020882879579121858
asL20130524681806L
(lp468
F1292.1562337617113
aF1247.9643718112363
aF0.03541115671943181
asL20131225097809L
(lp469
F1273.0085341076813
aF1247.7888083587823
aF0.0202115338588992
asL20130724785953L
(lp470
F1298.753068265514
aF1254.3871814532147
aF0.03536857476564866
asL20130217055831L
(lp471
F1338.0145487440439
aF1254.9245533071808
aF0.06621114808686375
asL20130706175578L
(lp472
F1302.4845477889664
aF1257.1055156967154
aF0.0360980295811533
asL20130930497116L
(lp473
F1292.2735957101252
aF1256.9261645158715
aF0.02812212219949163
asL20131111835242L
(lp474
F1300.0137445897553
aF1255.468672651171
aF0.03548083111028067
asL20131222935149L
(lp475
F1303.3471490632662
aF1256.3575416843073
aF0.037401460826162074
asL20130705167982L
(lp476
F1303.1256026168774
aF1257.4239478310553
aF0.03634546237540117
asL20131221845616L
(lp477
F1362.8104168786285
aF1258.9822661987084
aF0.082469907215939
asL20130101663353L
(lp478
F1302.993304055766
aF1256.0508721739657
aF0.03737303394451899
asL20130426427009L
(lp479
F1334.3968545893033
aF1253.7016608662316
aF0.06436554743599546
asL20130520340097L
(lp480
F1301.924179740361
aF1258.7690824825013
aF0.03428356944766293
asL20130923910788L
(lp481
F1275.5552214788856
aF1248.4143173263176
aF0.021740301898086782
asL20130916398725L
(lp482
F1333.3293026924973
aF1257.18718692796
aF0.06056545640637395
asL20131006011023L
(lp483
F1320.9072958469833
aF1258.7690824825013
aF0.04936426722678566
asL20130808141462L
(lp484
F1303.9521589601964
aF1259.266865797685
aF0.03548516551668757
asL20130826671768L
(lp485
F1307.9586738286096
aF1256.0508721739657
aF0.04132619371124847
asL20131007106861L
(lp486
F1313.4331792943608
aF1259.266865797685
aF0.04301416559734852
asL20130708362913L
(lp487
F1287.4764930037413
aF1251.3082297525145
aF0.028904359766242567
asL20130617603756L
(lp488
F1448.4129351773515
aF1272.4999900429257
aF0.13824200118735697
asL20130104891056L
(lp489
F1332.5766563717432
aF1254.6818011177006
aF0.062083354667814554
asL20131005970098L
(lp490
F1330.7887677803255
aF1255.3018415265058
aF0.060134482207103386
asL20131113998007L
(lp491
F1324.609729844126
aF1254.335122074417
aF0.056025384710179225
asL20130729244348L
(lp492
F1283.5081598192094
aF1249.297006709132
aF0.027384323284497154
asL20130214835905L
(lp493
F1344.3883679538822
aF1253.4907468748977
aF0.07251559000782662
asL20131015734980L
(lp494
F1328.129333558299
aF1254.2990443396452
aF0.05886179181259247
asL20130227787467L
(lp495
F1323.655226896038
aF1252.4936303272395
aF0.0568159349043603
asL20130916390604L
(lp496
F1281.354509380265
aF1248.5074852931823
aF0.02630903256408537
asL20130412295894L
(lp497
F1293.3276334595414
aF1250.7959035670851
aF0.0340037329600793
asL20130702915291L
(lp498
F1304.132562769337
aF1256.9261645158715
aF0.03755701773592082
asL20130628542264L
(lp499
F1319.0576351153052
aF1257.2801966666682
aF0.04913577626723369
asL20130630769123L
(lp500
F1311.5660918086887
aF1258.113405314402
aF0.042486381806677444
asL20130807985894L
(lp501
F1310.6522074633501
aF1258.7690824825013
aF0.041217349315989485
asL20130604545768L
(lp502
F1281.699783871879
aF1247.7888083587823
aF0.027176854998162556
asL20131210032875L
(lp503
F1329.1439065191225
aF1254.46852534679
aF0.059527504806618316
asL20130131768465L
(lp504
F1294.0083300592648
aF1253.2214313469024
aF0.032545644123342723
asL20130717128429L
(lp505
F1296.6648389937632
aF1254.4041911836434
aF0.03368981713162406
asL20131025575739L
(lp506
F1320.880237095669
aF1252.0188542115961
aF0.05500027627573964
asL20130826680052L
(lp507
F1286.4028213470554
aF1249.1329942607176
aF0.029836556441610422
asL20130405668599L
(lp508
F1303.2426777228652
aF1257.7779799818518
aF0.03614683868266594
asL20130716096248L
(lp509
F1333.8704588828407
aF1255.54033322975
aF0.06238758212696703
asL20131010287365L
(lp510
F1312.3370624251127
aF1256.0508721739657
aF0.044812030705195224
asL20130320422665L
(lp511
F1322.4197224494465
aF1253.076151898696
aF0.05533867231107951
asL20130301949709L
(lp512
F1321.7405757016775
aF1255.088565755595
aF0.053105423604872255
asL20130504021780L
(lp513
F1326.617866075872
aF1255.3736242391938
aF0.05675142480379496
asL20130201868055L
(lp514
F1330.0777614404417
aF1258.3872584741307
aF0.05697014371652172
asL20130807052059L
(lp515
F1378.5978039751546
aF1254.1043030052706
aF0.09926885720075616
asL20131102177052L
(lp516
F1261.2982250199714
aF1249.1329942607176
aF0.009738939580611727
asL20131017905949L
(lp517
F1304.8522385710285
aF1258.113405314402
aF0.03714993661079904
asL20131124877090L
(lp518
F1280.9094003818777
aF1248.5074852931823
aF0.02595251968480318
asL20130525738787L
(lp519
F1281.6197295994277
aF1248.5783297747319
aF0.026463217434389712
asL20130410067751L
(lp520
F1293.8564482526056
aF1255.7629981278665
aF0.030334904103346
asL20131213236012L
(lp521
F1304.7699530290213
aF1254.844154672068
aF0.03978645329865722
asL20131230463804L
(lp522
F1291.2451619893668
aF1248.5956224067518
aF0.034158008259235435
asL20130316146497L
(lp523
F1291.8943140686672
aF1248.116880039762
aF0.03507478724869945
asL20131217520460L
(lp524
F1307.2740843925462
aF1256.8565834330807
aF0.04011396496945663
asL20130715981646L
(lp525
F1355.7099454218178
aF1253.3529460566947
aF0.08166654068764845
asL20131031029584L
(lp526
F1310.398677620433
aF1257.4473778593804
aF0.04211015164005872
asL20130305251158L
(lp527
F1337.5438687263468
aF1254.2990443396452
aF0.06636760568571408
asL20130823419735L
(lp528
F1301.1941933418923
aF1248.0866849829515
aF0.04255113767171245
asL20130518136669L
(lp529
F1357.9265636149692
aF1256.0508721739657
aF0.08110793415928896
asL20131008141152L
(lp530
F1294.3788742501433
aF1258.7690824825013
aF0.028289375917474574
asL20131101120357L
(lp531
F1343.5419052988245
aF1252.1828666600104
aF0.07295982166127155
asL20130531235687L
(lp532
F1323.4348340751555
aF1252.2890987976198
aF0.056812548592690026
asL20130525706090L
(lp533
F1278.6298474381697
aF1250.8281247175098
aF0.022226653023922606
asL20130304161645L
(lp534
F1307.226496701154
aF1253.5417734469897
aF0.042826433383661405
asL20131212138353L
(lp535
F1300.4262833635769
aF1252.0026805638713
aF0.03867691623303616
asL20130610042745L
(lp536
F1396.2660921400186
aF1268.5750622324922
aF0.10065705507627613
asL20130321504135L
(lp537
F1325.4199794727342
aF1252.2546493726984
aF0.058426878380277596
asL20131203520397L
(lp538
F1290.5256707957815
aF1249.297006709132
aF0.03300149113080255
asL20130726926230L
(lp539
F1280.2924835595365
aF1248.5783297747319
aF0.025400211607490057
asL20131012466590L
(lp540
F1293.952126384546
aF1253.659959814973
aF0.03213962945384309
asL20130624247715L
(lp541
F1300.842932913708
aF1257.615621999218
aF0.034372434755360205
asL20130511615911L
(lp542
F1300.7449495449239
aF1255.468672651171
aF0.03606324704075902
asL20130826655657L
(lp543
F1334.2685356973502
aF1250.6539067269762
aF0.06685672872457393
asL20130111387568L
(lp544
F1329.5264963091963
aF1255.088565755595
aF0.059308906625874465
asL20130510542772L
(lp545
F1331.6940392485785
aF1259.266865797685
aF0.05751534914326065
asL20130715965364L
(lp546
F1308.3546423398573
aF1260.2277163094434
aF0.03818907123496125
asL20130706241463L
(lp547
F1271.7751399923375
aF1254.8670817551274
aF0.013473983406721861
asL20131006019517L
(lp548
F1309.4274057048124
aF1256.9261645158715
aF0.04176955072708085
asL20130119948244L
(lp549
F1279.1748051537552
aF1248.5074852931823
aF0.024563184619891484
asL20131003756386L
(lp550
F1338.7627945426193
aF1255.3018415265058
aF0.06648676059824872
asL20130628581338L
(lp551
F1396.7613651829995
aF1301.4994029396626
aF0.0731940114825802
asL20130111354851L
(lp552
F1301.4658594555306
aF1256.1652107754564
aF0.0360626518641677
asL20130520266724L
(lp553
F1287.020902408642
aF1254.1771098000572
aF0.026187523557833766
asL20131220748264L
(lp554
F1287.4126753517994
aF1254.4430758620063
aF0.026282260330655245
asL20130828842996L
(lp555
F1304.1036397497464
aF1258.7690824825013
aF0.03601499107194298
asL20131030923253L
(lp556
F1342.625150757639
aF1253.9402905568563
aF0.07072494668896794
asL20131125955789L
(lp557
F1303.7894041259833
aF1256.0508721739657
aF0.03800684590855151
asL20130730252285L
(lp558
F1306.243055678566
aF1258.7690824825013
aF0.0377146006020724
asL20130924066819L
(lp559
F1340.1180038760476
aF1254.1043030052706
aF0.06858576329309951
asL20130610042888L
(lp560
F1333.5165665329673
aF1255.2560635757445
aF0.06234624570088795
asL20131117348874L
(lp561
F1325.8663358846213
aF1254.512320110556
aF0.05687789161590472
asL20130309593110L
(lp562
F1299.5902096214584
aF1256.0508721739657
aF0.034663673591607845
asL20130611132441L
(lp563
F1342.6059282633826
aF1252.8939812790902
aF0.07160378158469934
asL20131126024219L
(lp564
F1307.3755240618837
aF1257.4502255900868
aF0.039703598166971804
asL20130712688668L
(lp565
F1302.2531114535993
aF1258.7690824825013
aF0.034544881643693
asL20130507290657L
(lp566
F1294.385877832361
aF1257.4239478310553
aF0.0293949626655845
asL20131213260836L
(lp567
F1308.6840145090252
aF1256.5486554891495
aF0.041490919426100926
asL20130630760485L
(lp568
F1293.032634298982
aF1255.7629981278665
aF0.02967887748458772
asL20130417612839L
(lp569
F1279.7728438087704
aF1254.0607081542105
aF0.020503102830168665
asL20130119907370L
(lp570
F1329.6968966542
aF1255.1378290780915
aF0.05940309171533188
asL20130305243179L
(lp571
F1280.811457496886
aF1248.5783297747319
aF0.025815863493297786
asL20131123814257L
(lp572
F1280.5028402718413
aF1248.5783297747319
aF0.02556868859230418
asL20130116728885L
(lp573
F1337.0419982389185
aF1253.076151898696
aF0.0670077761938052
asL20130504022075L
(lp574
F1324.233588882519
aF1255.3018415265058
aF0.05491248803729063
asL20131001645116L
(lp575
F1312.621728114552
aF1258.7690824825013
aF0.04278198947009759
asL20130608844659L
(lp576
F1326.714183511146
aF1253.9402905568563
aF0.05803617086262691
asL20131016840393L
(lp577
F1280.558777948483
aF1247.8769454723517
aF0.02618994813127228
asL20131010369606L
(lp578
F1290.9444530143398
aF1248.5783297747319
aF0.033931490103029156
asL20131106469960L
(lp579
F1321.9007567588264
aF1258.2286264204868
aF0.05060457932790756
asL20130421987404L
(lp580
F1328.3437538565627
aF1253.1642890122655
aF0.05999170699601809
asL20130715940941L
(lp581
F1296.1588018789469
aF1249.297006709132
aF0.037510531857638224
asL20130105931856L
(lp582
F1292.7613564142655
aF1256.3592732380741
aF0.02897426234007932
asL20131026589782L
(lp583
F1339.7165218661355
aF1253.076151898696
aF0.0691421425873915
asL20130815670363L
(lp584
F1333.0057746918678
aF1254.1043030052706
aF0.06291460088090108
asL20131031971934L
(lp585
F1325.4519117840675
aF1258.7219265768586
aF0.05301408023349818
asL20131028768874L
(lp586
F1295.9208373264037
aF1255.2652148126826
aF0.03238807387790785
asL20130523551851L
(lp587
F1304.6312973331333
aF1258.7690824825013
aF0.03643417644178556
asL20131226146001L
(lp588
F1274.3238770542903
aF1249.1329942607176
aF0.02016669394637321
asL20131117348982L
(lp589
F1323.980247913656
aF1255.3395909911821
aF0.054678954933841534
asL20130330269820L
(lp590
F1292.6424486463031
aF1249.297006709132
aF0.03469586631873134
asL20130218080386L
(lp591
F1270.1566533229836
aF1250.1928453485605
aF0.015968582806004737
asL20130725828743L
(lp592
F1291.548440780405
aF1248.0035757146513
aF0.03489161883275714
asL20130205169808L
(lp593
F1333.2464482895398
aF1253.314781589321
aF0.0637762099947931
asL20131112941717L
(lp594
F1279.2480452029265
aF1248.5783297747319
aF0.02456370953813372
asL20130603382935L
(lp595
F1308.4497566101538
aF1255.3419379872516
aF0.042305460381617165
asL20131211090072L
(lp596
F1292.1586131625531
aF1249.1329942607176
aF0.03444438590568144
asL20131125934240L
(lp597
F1298.1583288992047
aF1253.6928355402322
aF0.03546761383525952
asL20130928351406L
(lp598
F1332.608785072497
aF1252.8257409967925
aF0.06368247511599365
asL20130518177969L
(lp599
F1298.7431720616003
aF1257.4239478310553
aF0.03286021735295954
asL20130826664114L
(lp600
F1303.2261062281154
aF1255.3419379872516
aF0.03814432290666456
asL20130105915603L
(lp601
F1289.5013815919688
aF1255.0570447302873
aF0.027444439283700897
asL20130614342882L
(lp602
F1295.2080384073674
aF1249.4741684141604
aF0.036602493392282526
asL20131210000601L
(lp603
F1272.4182913970162
aF1247.958289365927
aF0.01960001567321383
asL20131009263834L
(lp604
F1272.4153091191383
aF1252.993319381219
aF0.015500473496148227
asL20131211057374L
(lp605
F1278.097086486138
aF1249.4322680194427
aF0.02294227482385567
asL20130304186594L
(lp606
F1303.3978287956156
aF1256.5486554891495
aF0.037284010532985426
asL20131015710948L
(lp607
F1307.0150105535433
aF1256.0508721739657
aF0.040574899877557684
asL20130917480678L
(lp608
F1282.6374374384523
aF1248.499739204636
aF0.027342975862825514
asL20130306316527L
(lp609
F1326.9762731459418
aF1253.0000296434732
aF0.05903929908406921
asL20130505095421L
(lp610
F1325.9525791991698
aF1251.158510868811
aF0.05977985017935216
asL20130822355213L
(lp611
F1309.6284480875252
aF1256.0508721739657
aF0.042655577971000266
asL20130929432852L
(lp612
F1306.0350565986537
aF1257.0382992617904
aF0.038977935171615054
asL20131227266967L
(lp613
F1297.6535452661824
aF1254.1484048207274
aF0.03468898918041028
asL20131202414873L
(lp614
F1283.2958868384105
aF1248.412536442854
aF0.027942166052698378
asL20130601310788L
(lp615
F1352.2558555593507
aF1253.8656733146456
aF0.07846947590853699
asL20130324773159L
(lp616
F1317.0100607770878
aF1252.4585798047644
aF0.05153981298318525
asL20130814581032L
(lp617
F1378.4203641035692
aF1269.78177973439
aF0.08555689339935554
asL20130518161707L
(lp618
F1285.0072281612327
aF1249.218416139036
aF0.028648962871368238
asL20130721528112L
(lp619
F1319.0008064329954
aF1261.7577873324735
aF0.045367676486896415
asL20130819078450L
(lp620
F1281.570949994309
aF1249.1329942607176
aF0.025968376371956647
asL20130126412084L
(lp621
F1290.5071980094476
aF1248.4143173263176
aF0.033717076213351016
asL20130524641590L
(lp622
F1291.8398599642062
aF1249.1329942607176
aF0.03418920635329471
asL20130628614456L
(lp623
F1301.6961517448829
aF1248.585214777597
aF0.04253689402909211
asL20130626427194L
(lp624
F1332.23196373762
aF1254.0257124351747
aF0.0623641529252041
asL20130307414339L
(lp625
F1281.1540088948639
aF1249.3687894218199
aF0.025441022492448746
asL20130529007939L
(lp626
F1299.899528406161
aF1256.7421263546141
aF0.03434069818024792
asL20130630725535L
(lp627
F1272.2941477929955
aF1254.1484048207274
aF0.014468577165604258
asL20130409981174L
(lp628
F1283.4979100474525
aF1254.626538400769
aF0.023011924874062374
asL20131004895136L
(lp629
F1270.4483370654639
aF1249.218416139036
aF0.016994562882000484
asL20131102161232L
(lp630
F1287.3206728907358
aF1252.2890987976198
aF0.0279740310178787
asL20130606676308L
(lp631
F1332.446530764183
aF1255.5036034395964
aF0.061284513332970664
asL20130307373399L
(lp632
F1332.5729428967006
aF1254.0257124351747
aF0.0626360605549277
asL20130824466338L
(lp633
F1272.2373060412992
aF1248.276131350656
aF0.019195412047746878
asL20130711615845L
(lp634
F1303.3778325300361
aF1256.0508721739657
aF0.0376791747886431
asL20130701785453L
(lp635
F1303.8045500203136
aF1258.7690824825013
aF0.03577738615012289
asL20131120601460L
(lp636
F1301.6125512744827
aF1256.09640624783
aF0.03623618760491253
asL20130430728566L
(lp637
F1308.6402624057773
aF1254.2455184941857
aF0.04336849772195838
asL20130715998584L
(lp638
F1295.1381973472419
aF1246.8376476841413
aF0.03873844341547863
asL20130826639737L
(lp639
F1277.7685616803428
aF1248.5783297747319
aF0.02337877505120361
asL20130221349246L
(lp640
F1305.9017236229874
aF1257.4502255900868
aF0.03853154347335195
asL20130401393023L
(lp641
F1279.7364286226234
aF1248.676966300327
aF0.02487389706108036
asL20130120972673L
(lp642
F1291.7012416239106
aF1254.4430758620063
aF0.029700961708686503
asL20130623150473L
(lp643
F1320.8946564666703
aF1253.7870827445497
aF0.05352389942893781
asL20130523552139L
(lp644
F1301.5871161637328
aF1258.113405314402
aF0.03455468375560856
asL20130103818639L
(lp645
F1292.0037979110741
aF1249.3687894218199
aF0.0341252389608554
asL20130109241747L
(lp646
F1299.2486013218333
aF1256.5486554891495
aF0.033981927915128454
asL20131010361748L
(lp647
F1275.2433807313294
aF1248.5074852931823
aF0.02141428525906576
asL20130502818198L
(lp648
F1286.650316210003
aF1256.5486554891495
aF0.023955825816498532
asL20130625255836L
(lp649
F1283.352934776561
aF1248.6501124874198
aF0.027792270982949757
asL20130102704543L
(lp650
F1305.3183280761016
aF1254.844154672068
aF0.04022345979467394
asL20130615482784L
(lp651
F1330.9772430396415
aF1254.1043030052706
aF0.061297086574184124
asL20131130276257L
(lp652
F1284.0650992706126
aF1247.7888083587823
aF0.029072460554879106
asL20130509453732L
(lp653
F1313.8472006558611
aF1256.866615129263
aF0.04533542767442983
asL20131007051012L
(lp654
F1281.5102423591572
aF1249.4741684141604
aF0.025639644864092852
asL20131106463663L
(lp655
F1303.10676532809
aF1258.7440640738112
aF0.035243623005222324
asL20130617612722L
(lp656
F1335.3233367722287
aF1254.0915198003254
aF0.06477343614032005
asL20130830956987L
(lp657
F1306.7758542103907
aF1256.0508721739657
aF0.040384496488291496
asL20130429568267L
(lp658
F1286.3341379697708
aF1250.7464649228225
aF0.028453147016605226
asL20131103218124L
(lp659
F1279.5853013777487
aF1248.5956224067518
aF0.02481962808043667
asL20131029875153L
(lp660
F1282.6608258333529
aF1248.6501124874198
aF0.027237985249671522
asL20130706217426L
(lp661
F1306.0584900845483
aF1257.4502255900868
aF0.03865621358622844
asL20130828854998L
(lp662
F1325.1687793460994
aF1256.3592732380741
aF0.05476897219907431
asL20130621970915L
(lp663
F1293.0929729037812
aF1255.5548280454711
aF0.029897654821451215
asL20131122764260L
(lp664
F1306.4400287040191
aF1264.4978627051564
aF0.03316902877885085
asL20130613295592L
(lp665
F1524.572557670194
aF1272.4999900429257
aF0.19809239261272227
asL20130311731690L
(lp666
F1335.3635966423856
aF1254.6004572241254
aF0.0643735931652322
asL20130131827181L
(lp667
F1321.6052979223764
aF1252.0908176774408
aF0.05551872057801776
asL20130410068468L
(lp668
F1401.6681068036878
aF1258.0667597792503
aF0.11414445688846817
asL20130903308789L
(lp669
F1322.513609905694
aF1263.3233252646664
aF0.04685283921962511
asL20130822355410L
(lp670
F1269.5356195882027
aF1252.274642446819
aF0.013783699323063512
asL20130317212158L
(lp671
F1308.0703825247758
aF1256.3592732380741
aF0.0411594918652721
asL20130406782229L
(lp672
F1279.1331071975019
aF1249.297006709132
aF0.023882311674598127
asL20131201341957L
(lp673
F1309.3711800809986
aF1253.959022569652
aF0.04418976737995332
asL20130807044619L
(lp674
F1405.8696745861128
aF1253.2198327389926
aF0.1218061172184724
asL20130530070464L
(lp675
F1341.6032229539355
aF1253.7870827445497
aF0.07004071218946968
asL20131011459597L
(lp676
F1276.4429318653483
aF1249.297006709132
aF0.02172896037566245
asL20130511559191L
(lp677
F1275.5992025421383
aF1248.5783297747319
aF0.021641311660664127
asL20131110812183L
(lp678
F1279.9865366767754
aF1248.5074852931823
aF0.025213346138810655
asL20130530064921L
(lp679
F1305.7697977408984
aF1257.7779799818518
aF0.03815603272028907
asL20131230423580L
(lp680
F1285.7511694529846
aF1250.2280759147698
aF0.028413290520790186
asL20131022240285L
(lp681
F1283.83245646801
aF1248.499739204636
aF0.028300139882995005
asL20130824523715L
(lp682
F1292.4424698864655
aF1249.1329942607176
aF0.034671628901596634
asL20130930555423L
(lp683
F1340.414418530708
aF1251.6091600609616
aF0.07095286715976173
asL20130218146353L
(lp684
F1342.6952043624613
aF1264.1867807926608
aF0.062101917819908474
asL20130404630472L
(lp685
F1315.1351454890923
aF1252.2890987976198
aF0.050184934734171155
asL20130304203325L
(lp686
F1283.092082905093
aF1248.5783297747319
aF0.027642441252835295
asL20130815662655L
(lp687
F1291.2070600322747
aF1249.218416139036
aF0.03361193154917874
asL20130906561092L
(lp688
F1306.626558858934
aF1256.7370360186467
aF0.03969766260596389
asL20130610018891L
(lp689
F1334.0735023971486
aF1255.2232509564096
aF0.06281771101727081
asL20130208389715L
(lp690
F1287.5159827758866
aF1255.0570447302873
aF0.025862520099693774
asL20130915326548L
(lp691
F1333.9220539230744
aF1258.509147884283
aF0.05992241388596197
asL20130625313366L
(lp692
F1306.0794208583368
aF1249.297006709132
aF0.0454514929950723
asL20130720438874L
(lp693
F1331.253674773234
aF1252.9952220039372
aF0.062457103901910095
asL20130919651936L
(lp694
F1336.5563855949947
aF1253.314781589321
aF0.06641715651044626
asL20130927327846L
(lp695
F1332.6955546755094
aF1253.076151898696
aF0.06353915734185171
asL20131116290000L
(lp696
F1291.9374880336434
aF1248.5956224067518
aF0.03471249205835533
asL20131014629997L
(lp697
F1340.4413057400527
aF1253.076151898696
aF0.06972054628043041
asL20130729222097L
(lp698
F1280.505346574592
aF1247.5719655670355
aF0.026397980971452815
asL20130411133559L
(lp699
F1391.6594059307824
aF1258.977562913966
aF0.10538856841079652
asL20131021183608L
(lp700
F1319.4544096910795
aF1258.618378008746
aF0.04833556600260504
asL20131227236986L
(lp701
F1280.513322907734
aF1248.5074852931823
aF0.025635278916278044
asL20131031005821L
(lp702
F1335.4414179170758
aF1255.160348468283
aF0.06396080751496223
asL20131219685331L
(lp703
F1276.4455127190604
aF1248.995080056435
aF0.021978015046612585
asL20130601261705L
(lp704
F1337.3708867882146
aF1253.1642890122655
aF0.0671951782493899
asL20131212180111L
(lp705
F1329.7861506475651
aF1252.4150397571436
aF0.0617775325545632
asL20130827754130L
(lp706
F1330.4349464026354
aF1253.8656733146456
aF0.06106656774929948
asL20130429631125L
(lp707
F1296.82455249969
aF1256.5486554891495
aF0.032052795436609625
asL20131203472028L
(lp708
F1263.537769071322
aF1249.1329942607176
aF0.01153181837065281
asL20130818955937L
(lp709
F1271.7104099769954
aF1248.676966300327
aF0.01844627898031435
asL20131227269800L
(lp710
F1307.305014956938
aF1256.5486554891495
aF0.04039346924296387
asL20130118900394L
(lp711
F1307.2651651240608
aF1255.6674274602726
aF0.04109188192302666
asL20130722585258L
(lp712
F1335.3063044562787
aF1254.2990443396452
aF0.0645836895772185
asL20130912082603L
(lp713
F1338.213513690214
aF1262.9131184132598
aF0.059624367012326776
asL20130223512237L
(lp714
F1290.4310690424077
aF1255.7629981278665
aF0.02760717664577275
asL20131023338179L
(lp715
F1323.7390384783698
aF1252.6281895314066
aF0.056769318734208686
asL20130815752913L
(lp716
F1290.8568709496844
aF1248.5074852931823
aF0.03392000941552817
asL20131108615479L
(lp717
F1279.512230849493
aF1247.7888083587823
aF0.025423711350991113
asL20131009280727L
(lp718
F1283.4657588267694
aF1247.7888083587823
aF0.02859213853257191
asL20130415500000L
(lp719
F1305.6573565116655
aF1258.7690824825013
aF0.03724930543789078
asL20130627517155L
(lp720
F1343.1885897338402
aF1257.1055156967154
aF0.06847720653696732
asL20130920757992L
(lp721
F1303.14644006857
aF1262.559156425366
aF0.03214683718909237
asL20130427427571L
(lp722
F1308.6136530398744
aF1256.8489170107148
aF0.04118612454413113
asL20130121079547L
(lp723
F1284.9392044899241
aF1248.5074852931823
aF0.029180216879666286
asL20131203469288L
(lp724
F1287.4849600177085
aF1248.5074852931823
aF0.031219255938520315
asL20130124274439L
(lp725
F1283.4673222647452
aF1248.7515388111926
aF0.027800392932129568
asL20130718251789L
(lp726
F1309.446310723836
aF1257.615621999218
aF0.04121345808524799
asL20130829859598L
(lp727
F1304.6229524622906
aF1257.603299011899
aF0.03738830320128377
asL20131020135185L
(lp728
F1323.0718230648126
aF1252.0188542115961
aF0.05675071794183082
asL20130517121821L
(lp729
F1332.001592992326
aF1253.9374560273338
aF0.0622552078572654
asL20131104339268L
(lp730
F1332.2290179308663
aF1253.7016608662316
aF0.06263639868705059
asL20131201309481L
(lp731
F1281.7496948954565
aF1249.4741684141604
aF0.02583128751053762
asL20130805848889L
(lp732
F1281.0693906474712
aF1248.676966300327
aF0.025941396551198447
asL20130711608126L
(lp733
F1281.8676150955614
aF1256.6179505954572
aF0.020093350161152414
asL20130404621122L
(lp734
F1308.0110763887578
aF1252.4150397571436
aF0.04439106435706397
asL20131127106370L
(lp735
F1309.2641701974896
aF1255.5477582368485
aF0.04278324867233605
asL20130630753091L
(lp736
F1329.119613729424
aF1254.2990443396452
aF0.05965130064271853
asL20130516032331L
(lp737
F1307.4529746549695
aF1256.0508721739657
aF0.04092358328770341
asL20130428525392L
(lp738
F1304.918394489238
aF1256.9261645158715
aF0.038182218914864834
asL20130428509015L
(lp739
F1291.1189427810286
aF1251.990136526601
aF0.03125328635813602
asL20130622020440L
(lp740
F1335.8574308330583
aF1256.9261645158715
aF0.0627970588452096
asL20130912050011L
(lp741
F1312.6590629412274
aF1261.5500084683256
aF0.04051290407025114
asL20130718243676L
(lp742
F1294.0176541806072
aF1248.5783297747319
aF0.03639285043019569
asL20130325814110L
(lp743
F1330.4153472225978
aF1255.088565755595
aF0.060017104387891665
asL20130602367843L
(lp744
F1286.2860267848564
aF1249.1329942607176
aF0.02974305593947368
asL20130726968169L
(lp745
F1349.8016698549836
aF1254.1043030052706
aF0.07630734271494709
asL20130818988910L
(lp746
F1277.75938446569
aF1248.882832983986
aF0.023121906009956502
asL20130828780882L
(lp747
F1300.901361204441
aF1255.7629981278665
aF0.03594496982620786
asL20131201366905L
(lp748
F1310.491979062103
aF1258.2071889467454
aF0.04155499235314773
asL20130812451712L
(lp749
F1333.7522706676925
aF1254.9245533071808
aF0.06281470639232628
asL20130830023553L
(lp750
F1307.880139640479
aF1256.5486554891495
aF0.04085117112424682
asL20130308529029L
(lp751
F1332.6992191146014
aF1255.3395909911821
aF0.06162446295694236
asL20131005946758L
(lp752
F1292.2982739352253
aF1248.7515388111926
aF0.03487221738720662
asL20131113999245L
(lp753
F1303.797819544617
aF1258.618378008746
aF0.035896060573459156
asL20130219154321L
(lp754
F1280.6232889800212
aF1248.6501124874198
aF0.025606193578846553
asL20130904333201L
(lp755
F1283.8405486548334
aF1248.7546957847417
aF0.028096673420749826
asL20130201871704L
(lp756
F1299.9710275621737
aF1255.0570447302873
aF0.0357864074947593
asL20131214351258L
(lp757
F1256.8064923293796
aF1249.4741684141604
aF0.005868327733838128
asL20130910871555L
(lp758
F1314.4496159169585
aF1259.266865797685
aF0.04382133098079868
asL20130912074660L
(lp759
F1366.462684567731
aF1271.07551743628
aF0.07504445316029996
asL20130408954790L
(lp760
F1302.9862727290897
aF1256.5486554891495
aF0.0369564815791896
asL20130627517352L
(lp761
F1332.4787484357043
aF1253.9402905568563
aF0.06263333148340759
asL20130718202795L
(lp762
F1306.192059487952
aF1257.4239478310553
aF0.03878414415521304
asL20131110812589L
(lp763
F1285.1504112781804
aF1247.7888083587823
aF0.02994224877568816
asL20131114146738L
(lp764
F1285.5307652800534
aF1248.499739204636
aF0.02966041955203634
asL20130405702583L
(lp765
F1292.8413197095106
aF1247.958289365927
aF0.03596516864869593
asL20130717162426L
(lp766
F1311.2437580560754
aF1255.794472262534
aF0.04415474587464914
asL20130709461952L
(lp767
F1308.865170889024
aF1253.7192146620862
aF0.04398589060613649
asL20130503957445L
(lp768
F1335.5488455496443
aF1253.9402905568563
aF0.06508169137507082
asL20130814655434L
(lp769
F1312.1852054701317
aF1260.8442261260636
aF0.040719526076439194
asL20131021200331L
(lp770
F1281.288517388788
aF1248.5074852931823
aF0.026256175859376507
asL20130109176791L
(lp771
F1333.9973899429517
aF1253.7870827445497
aF0.06397442460710395
asL20131030948825L
(lp772
F1344.4550252529452
aF1256.9544984522345
aF0.06961312196141989
asL20131218627546L
(lp773
F1269.6908494143129
aF1248.5074852931823
aF0.016966950034869973
asL20130221325277L
(lp774
F1279.9676023444385
aF1248.5783297747319
aF0.02514001069950488
asL20130801466336L
(lp775
F1524.068274574972
aF1272.4999900429257
aF0.1976960994110186
asL20130905496545L
(lp776
F1291.2623353220204
aF1248.0849196082265
aF0.034594934235201893
asL20130405727208L
(lp777
F1333.367229279431
aF1255.1378290780915
aF0.062327338391831966
asL20130506144745L
(lp778
F1314.157103472121
aF1253.3529460566947
aF0.048513196228347835
asL20131209911275L
(lp779
F1300.5123841739587
aF1255.468672651171
aF0.03587800516572755
asL20131021192180L
(lp780
F1293.3012556467402
aF1256.5486554891495
aF0.029248847624832815
asL20130104843255L
(lp781
F1280.9094253489752
aF1248.7515388111926
aF0.02575202955777479
asL20131129244668L
(lp782
F1279.5721218670062
aF1249.218416139036
aF0.02429815742052903
asL20130227821567L
(lp783
F1327.971718534469
aF1252.792201979821
aF0.06000956618012133
asL20130911976447L
(lp784
F1343.2633623169413
aF1253.8656733146456
aF0.07129766043117618
asL20130918538242L
(lp785
F1292.786236039142
aF1248.5074852931823
aF0.0354653466379194
asL20130323708936L
(lp786
F1309.3161796340582
aF1252.5654130399275
aF0.04530762705350358
asL20130315074569L
(lp787
F1306.4504363270164
aF1259.1161613239296
aF0.03759325506021298
asL20130211552268L
(lp788
F1279.8588872792707
aF1250.4022065578743
aF0.02355776450721821
asL20131013573652L
(lp789
F1337.1452450896968
aF1254.1043030052706
aF0.06621533941429847
asL20130803639274L
(lp790
F1305.361958462311
aF1256.0508721739657
aF0.03925882890634667
asL20130513705667L
(lp791
F1321.0052201197468
aF1252.3296178788253
aF0.05483828000270656
asL20131204593006L
(lp792
F1305.5728852179454
aF1256.9261645158715
aF0.03870292629385364
asL20130913183088L
(lp793
F1279.8672463310256
aF1248.7515388111926
aF0.02491745279405625
asL20130126470190L
(lp794
F1281.6431910389174
aF1249.297006709132
aF0.025891508709358906
asL20130507234355L
(lp795
F1314.2018465861188
aF1258.618378008746
aF0.04416228902148328
asL20130401393721L
(lp796
F1279.7860340343593
aF1248.499739204636
aF0.025059112026450635
asL20130928352320L
(lp797
F1282.829716803594
aF1254.1771098000572
aF0.02284574226370997
asL20130715966531L
(lp798
F1304.2423600108448
aF1256.0508721739657
aF0.038367464968572136
asL20131229342788L
(lp799
F1298.5370327499124
aF1255.0799865436773
aF0.03462492165611699
asL20131116293192L
(lp800
F1294.4351771154415
aF1255.468672651171
aF0.031037416793511192
asL20131126025294L
(lp801
F1297.269195544995
aF1255.468672651171
aF0.03329475581860121
asL20130605608993L
(lp802
F1308.41626644512
aF1258.7690824825013
aF0.03944105765984203
asL20130509429850L
(lp803
F1394.8280901161293
aF1262.3925883598017
aF0.10490833277815581
asL20130329197663L
(lp804
F1339.333887972281
aF1254.0257124351747
aF0.06802745325807362
asL20131120594015L
(lp805
F1304.7740165811383
aF1256.9261645158715
aF0.03806735305227439
asL20130128559201L
(lp806
F1290.7141893690327
aF1249.297006709132
aF0.03315239085459829
asL20131207814243L
(lp807
F1300.0496673382445
aF1256.9261645158715
aF0.0343087000969407
asL20130513763429L
(lp808
F1337.6757055327867
aF1253.1642890122655
aF0.06743841750161297
asL20130527829094L
(lp809
F1329.1704290475857
aF1253.7870827445497
aF0.06012451981720951
asL20130612182119L
(lp810
F1279.9192019009004
aF1249.218416139036
aF0.024575995170445383
asL20130730310760L
(lp811
F1333.7434740527378
aF1254.1043030052706
aF0.06350282895659003
asL20131018939497L
(lp812
F1289.7637424753339
aF1248.5074852931823
aF0.033044461221202456
asL20130528975569L
(lp813
F1311.4271202046086
aF1255.9664559663545
aF0.04415775913026442
asL20130124258424L
(lp814
F1298.5019184548787
aF1257.1055156967154
aF0.03292993487123512
asL20130924059770L
(lp815
F1292.2031947908451
aF1249.1329942607176
aF0.03448007596310274
asL20131022303272L
(lp816
F1315.9150574897576
aF1257.4239478310553
aF0.0465166181697066
asL20130109226111L
(lp817
F1302.5854705779122
aF1255.420421731493
aF0.037569126668633115
asL20130302057604L
(lp818
F1320.5895168102998
aF1254.9444573942278
aF0.05230913530020096
asL20130906594442L
(lp819
F1298.4228480973907
aF1256.5486554891495
aF0.03332476814591822
asL20130616523917L
(lp820
F1453.4358917191623
aF1272.4999900429257
aF0.1421893148070933
asL20130113469587L
(lp821
F1348.9689298683497
aF1259.8780197522672
aF0.07071391731526575
asL20130617580695L
(lp822
F1309.2216138229237
aF1256.5486554891495
aF0.041918757466076526
asL20131205618842L
(lp823
F1312.637801109184
aF1258.618378008746
aF0.04291962046978992
asL20130611133596L
(lp824
F1310.1113829763033
aF1259.266865797685
aF0.040376284455329176
asL20130502818982L
(lp825
F1310.2978575803327
aF1258.618378008746
aF0.04106048384050174
asL20131116260522L
(lp826
F1272.4040188924769
aF1249.297006709132
aF0.018496011804441055
asL20130301992111L
(lp827
F1328.943280986585
aF1253.3529460566947
aF0.060310493678347364
asL20131013598385L
(lp828
F1276.2527110515641
aF1249.297006709132
aF0.021576698093144636
asL20130606693555L
(lp829
F1335.4216364867375
aF1254.1760857179586
aF0.06478001908501511
asL20131123780792L
(lp830
F1282.4289996785274
aF1248.5783297747319
aF0.027111370665789815
asL20130204081339L
(lp831
F1343.8958701720526
aF1254.2990443396452
aF0.07143178992022409
asL20130915318988L
(lp832
F1310.5967497682439
aF1257.1055156967154
aF0.04255110919776882
asL20130728131793L
(lp833
F1315.1251657949672
aF1253.0852762479974
aF0.04950971072992762
asL20130707291350L
(lp834
F1303.9911663223031
aF1262.5480409319887
aF0.032824988869114176
asL20130408946907L
(lp835
F1330.905643688257
aF1253.6870451254301
aF0.06159320132011192
asL20130808110299L
(lp836
F1309.1323137288232
aF1256.9261645158715
aF0.0415347780058822
asL20130722610410L
(lp837
F1330.9425705191827
aF1253.4029187028905
aF0.061863308804590726
asL20130313845996L
(lp838
F1333.961095105943
aF1253.7016608662316
aF0.06401796914287973
asL20130527829235L
(lp839
F1302.6175836183506
aF1256.0508721739657
aF0.037073905584562486
asL20131110821108L
(lp840
F1276.541443989964
aF1247.7888083587823
aF0.023042870266643933
asL20130306340243L
(lp841
F1307.2002901776684
aF1257.7779799818518
aF0.039293349845836656
asL20131017923834L
(lp842
F1275.838532892158
aF1248.4143173263176
aF0.02196723890877328
asL20130603457800L
(lp843
F1283.545641195161
aF1254.844154672068
aF0.022872550679883825
asL20130920717584L
(lp844
F1422.059839858949
aF1270.3874489426366
aF0.11939065601014223
asL20130505096470L
(lp845
F1324.5883566101509
aF1254.2990443396452
aF0.056038719464632215
asL20131130291607L
(lp846
F1282.87437702387
aF1247.7888083587823
aF0.028118194705749788
asL20130119949595L
(lp847
F1277.309222736784
aF1249.297006709132
aF0.022422383050001243
asL20130318286109L
(lp848
F1318.9332233786072
aF1256.0508721739657
aF0.05006353850605198
asL20130101632288L
(lp849
F1302.8088940368898
aF1255.468672651171
aF0.03770721039637783
asL20130720406816L
(lp850
F1321.5979139070514
aF1254.4041911836434
aF0.053566245390175744
asL20130526813474L
(lp851
F1326.1817225827997
aF1253.314781589321
aF0.05813937732472648
asL20131006029096L
(lp852
F1297.2044894570647
aF1255.0570447302873
aF0.03358209485676
asL20130406776112L
(lp853
F1298.4260501346653
aF1255.468672651171
aF0.03421620819321709
asL20130227748148L
(lp854
F1322.3253742865525
aF1256.9490767188602
aF0.05201189036102447
asL20130508373301L
(lp855
F1312.6154231202286
aF1258.618378008746
aF0.04290184066508784
asL20130531155257L
(lp856
F1324.9601276606952
aF1258.7903026242384
aF0.05256620177205891
asL20131129195835L
(lp857
F1280.9968341461895
aF1249.297006709132
aF0.02537413222541893
asL20130228878653L
(lp858
F1326.5689900424507
aF1253.0786202135694
aF0.05864785229226551
asL20131028737352L
(lp859
F1303.3396878082176
aF1257.4502255900868
aF0.036494058599095755
asL20130310626636L
(lp860
F1300.5139133237042
aF1256.5486554891495
aF0.03498890205524105
asL20130306350413L
(lp861
F1292.4658732345063
aF1248.5783297747319
aF0.035150012148370845
asL20130205171029L
(lp862
F1284.6800793909715
aF1249.218416139036
aF0.028387080108486576
asL20130930488884L
(lp863
F1287.7983760166373
aF1249.5638353087263
aF0.030598309288028116
asL20130713836889L
(lp864
F1335.9968103192919
aF1255.160348468283
aF0.064403294726173
asL20131019029854L
(lp865
F1289.4888427935089
aF1249.1329942607176
aF0.03230708717022986
asL20130905480544L
(lp866
F1284.9296972146983
aF1248.5390520960443
aF0.029146581404531535
asL20130628582757L
(lp867
F1292.3304973453983
aF1248.5956224067518
aF0.03502725314249028
asL20130805800299L
(lp868
F1304.707808656268
aF1256.0508721739657
aF0.03873803009115964
asL20130905505138L
(lp869
F1269.9476169583756
aF1250.1928453485605
aF0.015801379509820697
asL20131007113980L
(lp870
F1307.6598663323684
aF1255.8614899228903
aF0.0412452940273362
asL20131012492666L
(lp871
F1281.4767792390733
aF1247.8769454723517
aF0.02692559862463296
asL20130801474944L
(lp872
F1283.0937808551384
aF1248.7515388111926
aF0.02750126104079881
asL20130222439811L
(lp873
F1333.787832690593
aF1255.3018415265058
aF0.06252360075298267
asL20130525740426L
(lp874
F1278.6494106769433
aF1249.1329942607176
aF0.023629522678403455
asL20130425306508L
(lp875
F1294.0409474986793
aF1250.45577871928
aF0.03485542593440555
asL20131005922703L
(lp876
F1299.286252895802
aF1255.8614899228903
aF0.03457766905136797
asL20130311740819L
(lp877
F1330.1929862181435
aF1254.512320110556
aF0.06032676195712293
asL20131213245845L
(lp878
F1307.3541040098003
aF1257.603299011899
aF0.03956001470176687
asL20130802564502L
(lp879
F1308.9077302272751
aF1256.0508721739657
aF0.042081781259245575
asL20130703949208L
(lp880
F1318.4242033357234
aF1263.3233252646664
aF0.043615816291140926
asL20131025501607L
(lp881
F1318.3970803731675
aF1251.70410891129
aF0.05328173886070077
asL20130725862828L
(lp882
F1292.7946281519846
aF1249.218416139036
aF0.03488278066507361
asL20131016834477L
(lp883
F1303.7652987198546
aF1257.2399096697977
aF0.03700597530528311
asL20130929483185L
(lp884
F1336.8023712867491
aF1255.2232509564096
aF0.06499172180580688
asL20130816834995L
(lp885
F1318.5743722629359
aF1255.088565755595
aF0.05058273036621984
asL20130627526070L
(lp886
F1329.7103761838282
aF1258.7690824825013
aF0.056357670909281406
asL20131225091511L
(lp887
F1271.800380428715
aF1249.1329942607176
aF0.018146495426944333
asL20130812476863L
(lp888
F1503.701183188661
aF1272.4999900429257
aF0.18169052648710518
asL20131023347144L
(lp889
F1320.4472425926808
aF1251.7459853156738
aF0.054884344014637654
asL20131207822793L
(lp890
F1292.015836344885
aF1248.0328618767926
aF0.03524184002811493
asL20130618727882L
(lp891
F1357.6595294658937
aF1270.2754356165465
aF0.06879145372667471
asL20130502884814L
(lp892
F1327.5367998434838
aF1255.088565755595
aF0.05772360299073642
asL20130422062546L
(lp893
F1324.6783023302
aF1251.3933452440608
aF0.058562687235520154
asL20130610994643L
(lp894
F1416.8453449703693
aF1267.0120099795972
aF0.1182572334047448
asL20130430680534L
(lp895
F1280.4649436846344
aF1248.676966300327
aF0.02545732662827215
asL20130812476891L
(lp896
F1435.584984305564
aF1270.4238931259683
aF0.13000471108364073
asL20130517081567L
(lp897
F1309.014519556193
aF1258.960857893842
aF0.039757917292271704
asL20130523559353L
(lp898
F1349.1725100091985
aF1250.755773136907
aF0.07868581459789022
asL20130217049574L
(lp899
F1322.653256430089
aF1255.521081204785
aF0.05346957229972157
asL20130422029805L
(lp900
F1332.2515108254947
aF1251.6373987620711
aF0.06440692179952019
asL20130625330678L
(lp901
F1314.8933143627048
aF1255.468672651171
aF0.04733263601555825
asL20130831056375L
(lp902
F1293.4761250846416
aF1248.5783297747319
aF0.035959133871889454
asL20130217065977L
(lp903
F1285.269571393982
aF1247.958289365927
aF0.029897859845149553
asL20130706210303L
(lp904
F1300.3047889554553
aF1253.5662052979326
aF0.037284495593445266
asL20130621996550L
(lp905
F1308.1351795748258
aF1257.2801966666682
aF0.0404484084319355
asL20130218122764L
(lp906
F1293.803238807437
aF1256.8883320543307
aF0.029370076729704802
asL20130617605646L
(lp907
F1417.0993412777084
aF1272.4999900429257
aF0.11363406865716745
asL20130811346449L
(lp908
F1273.4724262261855
aF1252.2290094297243
aF0.016964482244454283
asL20130511601182L
(lp909
F1309.3280580509158
aF1259.266865797685
aF0.03975423606617281
asL20130716073507L
(lp910
F1289.4698932307942
aF1249.218416139036
aF0.032221328609742764
asL20131231487428L
(lp911
F1283.3595436899877
aF1248.5783297747319
aF0.027856653512103716
asL20130514820648L
(lp912
F1275.662339736699
aF1248.5074852931823
aF0.02174985313535395
asL20130407833137L
(lp913
F1282.3791101895367
aF1248.5074852931823
aF0.02712969308982596
asL20130831048242L
(lp914
F1345.6560143588863
aF1281.0553749317332
aF0.05042767134917613
asL20130719309365L
(lp915
F1307.2104164135003
aF1258.7690824825013
aF0.03848309797652852
asL20130725887545L
(lp916
F1361.2315071698577
aF1258.8234145359834
aF0.08135223054428413
asL20130704039489L
(lp917
F1294.0401557719401
aF1258.5933596000557
aF0.02816381947474155
asL20130731343431L
(lp918
F1314.7229513008915
aF1256.619683763973
aF0.046237750599991335
asL20130806890058L
(lp919
F1290.455837948712
aF1249.3687894218199
aF0.03288624533826107
asL20130710519372L
(lp920
F1333.8155621433252
aF1251.6510843305864
aF0.06564487407182042
asL20130909740628L
(lp921
F1318.2290033976524
aF1259.1161613239296
aF0.04694788605649143
asL20130302058075L
(lp922
F1331.622285351632
aF1252.792201979821
aF0.06292351057680097
asL20130226691678L
(lp923
F1281.4044978772201
aF1247.958289365927
aF0.02680074229747441
asL20131208887903L
(lp924
F1300.2667588165434
aF1256.5486554891495
aF0.0347922089100285
asL20130713853537L
(lp925
F1347.6081854451802
aF1255.160348468283
aF0.07365420449244957
asL20130109226597L
(lp926
F1303.3710686637828
aF1256.6393716000384
aF0.037187834568832914
asL20130801493456L
(lp927
F1288.0161304848034
aF1255.3419379872516
aF0.026028121509219883
asL20130428550772L
(lp928
F1280.8120192918875
aF1247.7888083587823
aF0.026465384776563836
asL20130220252794L
(lp929
F1282.60140266946
aF1248.7321593110466
aF0.027122904704480207
asL20130929434239L
(lp930
F1283.157775479265
aF1249.218416139036
aF0.027168475025468708
asL20131108667518L
(lp931
F1298.4473391043057
aF1258.618378008746
aF0.031644986114514585
asL20131027705474L
(lp932
F1303.5510250844695
aF1257.615621999218
aF0.036525789185274604
asL20130402424278L
(lp933
F1291.53752337999
aF1248.5074852931823
aF0.034465182302614035
asL20130202943117L
(lp934
F1299.2988897354603
aF1256.0508721739657
aF0.034431740401279456
asL20130829926033L
(lp935
F1316.5173425925193
aF1258.7690824825013
aF0.045876770341490174
asL20130724732568L
(lp936
F1282.296610197999
aF1249.5093989803697
aF0.026240067697277315
asL20130711641764L
(lp937
F1305.5287435306466
aF1257.4239478310553
aF0.03825662441260782
asL20131217503708L
(lp938
F1302.940369226861
aF1256.0508721739657
aF0.03733089008707056
asL20130806922936L
(lp939
F1331.9868651483926
aF1253.1504029262574
aF0.06291061474986766
asL20130826616507L
(lp940
F1280.0922145203183
aF1253.4684673055942
aF0.02124006140493778
asL20130914238146L
(lp941
F1279.1898000285796
aF1248.5074852931823
aF0.02457519486011916
asL20131111902915L
(lp942
F1298.2745479373662
aF1256.0508721739657
aF0.0336162146763371
asL20131217571524L
(lp943
F1302.6420589743436
aF1252.2890987976198
aF0.04020873472832275
asL20130507251403L
(lp944
F1300.5887448523013
aF1255.8614899228903
aF0.03561479931370234
asL20130807979724L
(lp945
F1345.2393127671824
aF1255.3018415265058
aF0.07164609201186896
asL20131121643214L
(lp946
F1280.7639484120207
aF1247.958289365927
aF0.026287464353285335
asL20131028795092L
(lp947
F1308.4194225879435
aF1258.7690824825013
aF0.039443564984551004
asL20130131803863L
(lp948
F1325.4469431168957
aF1252.2890987976198
aF0.05841929342794576
asL20130123243226L
(lp949
F1292.3597135493092
aF1248.7515388111926
aF0.03492141821873659
asL20130731392731L
(lp950
F1306.7860643039
aF1257.2801966666682
aF0.03937536578439955
asL20130625265375L
(lp951
F1323.6706852369286
aF1256.5486554891495
aF0.05341777212888734
asL20130114584290L
(lp952
F1305.7093319584785
aF1256.7421263546141
aF0.03896360643682866
asL20131128131306L
(lp953
F1301.4975258930247
aF1255.3419379872516
aF0.03676734323062322
asL20131016802027L
(lp954
F1330.345295316541
aF1257.2660091177702
aF0.058125556301367745
asL20131024494316L
(lp955
F1324.8752109041832
aF1255.3736242391938
aF0.05536326821197166
asL20130318302959L
(lp956
F1322.9220636225484
aF1254.0257124351747
aF0.05494014237840857
asL20131027705593L
(lp957
F1310.6459077819068
aF1258.5126825710697
aF0.04142447345411875
asL20130221383432L
(lp958
F1610.529880924449
aF1282.7289933385116
aF0.25554960501265506
asL20130912001804L
(lp959
F1336.7366331302171
aF1257.9782155185833
aF0.06260713948783828
asL20131107528463L
(lp960
F1290.8673067866202
aF1249.218416139036
aF0.03333995889710676
asL20130427453203L
(lp961
F1337.4377373065524
aF1253.7016608662316
aF0.06679107083774964
asL20130107039514L
(lp962
F1276.1632873601723
aF1249.1329942607176
aF0.021639243558250698
asL20130216984349L
(lp963
F1309.0739817297483
aF1253.4029187028905
aF0.04441593536775083
asL20131022307104L
(lp964
F1274.5151072359965
aF1248.499739204636
aF0.020837303536750305
asL20130420907812L
(lp965
F1308.7324572707994
aF1252.0188542115961
aF0.04529772284852383
asL20130327019302L
(lp966
F1287.837363374738
aF1248.5074852931823
aF0.03150151564555504
asL20131114085992L
(lp967
F1305.8967215957332
aF1258.7690824825013
aF0.03743946349578939
asL20130321538865L
(lp968
F1275.2524573766789
aF1248.499739204636
aF0.021427892479245456
asL20131218661171L
(lp969
F1312.2556319075647
aF1258.7690824825013
aF0.04249115280109924
asL20130309603126L
(lp970
F1326.5329483013613
aF1252.53315231563
aF0.05908010965532014
asL20130410086201L
(lp971
F1305.9702908278357
aF1257.603299011899
aF0.038459657233675115
asL20130926206779L
(lp972
F1294.5611973805035
aF1248.5783297747319
aF0.03682818010630365
asL20131016793920L
(lp973
F1307.8248936244668
aF1257.541253966869
aF0.039985678003787085
asL20130402492232L
(lp974
F1292.8370319434537
aF1247.615857348321
aF0.036246072321688506
asL20131218603854L
(lp975
F1294.9208628790254
aF1259.7490378431128
aF0.02791970779841382
asL20131003744084L
(lp976
F1333.1165830183352
aF1258.7389332233413
aF0.05908901983712366
asL20131123781470L
(lp977
F1295.3591515734988
aF1257.4239478310553
aF0.03016898461960928
asL20130807971681L
(lp978
F1350.2394556059749
aF1255.3018415265058
aF0.0756293115638391
asL20130501754723L
(lp979
F1301.0179004120273
aF1255.5975026131514
aF0.0361743295159053
asL20130628616042L
(lp980
F1312.9265707287666
aF1251.323235389201
aF0.04923055338327907
asL20131210010480L
(lp981
F1278.4722721169903
aF1247.9154386010819
aF0.02448630137164005
asL20131213279089L
(lp982
F1296.1293444085854
aF1257.603299011899
aF0.030634497720351393
asL20130705162098L
(lp983
F1281.6452954603835
aF1248.5783297747319
aF0.026483693411223627
asL20130717196148L
(lp984
F1306.0487590602436
aF1259.1161613239296
aF0.03727423980243846
asL20130924027769L
(lp985
F1291.582188596713
aF1254.6748931152408
aF0.029415823719748446
asL20131214327674L
(lp986
F1290.4937788748025
aF1249.1329942607176
aF0.0331115940449269
asL20130512658310L
(lp987
F1297.1555166678472
aF1256.0508721739657
aF0.032725302298256334
asL20131004899209L
(lp988
F1311.8262423546857
aF1255.8614899228903
aF0.044562838243596165
asL20131124854674L
(lp989
F1297.027930703542
aF1247.9154386010819
aF0.03935562505542486
asL20130908733333L
(lp990
F1307.0262145974327
aF1257.2399096697977
aF0.039599685425760076
asL20131101097880L
(lp991
F1292.1683288121255
aF1252.0188542115961
aF0.03206778753009416
asL20130531221405L
(lp992
F1336.0651243456862
aF1250.7352015750741
aF0.06822381161348498
asL20130330222495L
(lp993
F1282.8527675583491
aF1248.0328618767926
aF0.027899830801886356
asL20130124332972L
(lp994
F1307.2529209716452
aF1256.5486554891495
aF0.04035201125001999
asL20130626387884L
(lp995
F1349.513793582867
aF1253.4029187028905
aF0.07667995139140003
asL20130625290157L
(lp996
F1313.7198836589348
aF1255.3018415265058
aF0.04653704806279099
asL20131230457775L
(lp997
F1277.853941297655
aF1249.1329942607176
aF0.02299270547563707
asL20130127495095L
(lp998
F1275.7969401081757
aF1254.4041911836434
aF0.017054111485665782
asL20131219709879L
(lp999
F1307.2779357707925
aF1256.0508721739657
aF0.04078422676317507
asL20130921807801L
(lp1000
F1277.9575804305202
aF1248.7515388111926
aF0.023388192696148075
asL20131020155741L
(lp1001
F1330.3257804532311
aF1254.7921254355235
aF0.06019615001288819
asL20130218115007L
(lp1002
F1335.9351174873777
aF1254.5430978576558
aF0.06487781868053205
asL20130330238920L
(lp1003
F1337.9377469888739
aF1255.088565755595
aF0.06601062546004595
asL20131002723168L
(lp1004
F1335.814575300456
aF1255.4413295399033
aF0.06401991384974398
asL20130309570510L
(lp1005
F1305.0871364445557
aF1256.9261645158715
aF0.03831646861073518
asL20130515869649L
(lp1006
F1281.2352592901336
aF1249.297006709132
aF0.02556497967215395
asL20131130261458L
(lp1007
F1291.3493349612081
aF1257.1055156967154
aF0.02724021081517092
asL20130604515283L
(lp1008
F1336.030711885514
aF1255.5036034395964
aF0.06413928898754591
asL20130616491990L
(lp1009
F1294.301322888517
aF1257.6678262144596
aF0.029128117862665722
asL20130701775033L
(lp1010
F1286.1775428973767
aF1256.7159106555077
aF0.023443351032694165
asL20130914238435L
(lp1011
F1279.2551617076153
aF1249.4852447386304
aF0.023825745117312107
asL20130616557547L
(lp1012
F1339.5553938162982
aF1253.009442619999
aF0.06907047006392442
asL20131106489872L
(lp1013
F1338.7062438137928
aF1254.2040954893168
aF0.06737511751746285
asL20131222953967L
(lp1014
F1308.3727888048845
aF1256.0508721739657
aF0.04165588973347901
asL20130902245363L
(lp1015
F1272.1688566100643
aF1250.077226632685
aF0.017672212169552975
asL20131025518588L
(lp1016
F1337.8475127355134
aF1253.7870827445497
aF0.06704521935810247
asL20130120974334L
(lp1017
F1292.4801460476324
aF1249.297006709132
aF0.03456595117621588
asL20130923985769L
(lp1018
F1285.510591118824
aF1250.741854428171
aF0.02779849140536595
asL20130615451651L
(lp1019
F1290.7951247222466
aF1248.5783297747319
aF0.03381189144547418
asL20130123210762L
(lp1020
F1291.5187596434323
aF1248.4143173263176
aF0.03452735339452843
asL20130627485709L
(lp1021
F1298.199444805181
aF1255.6674274602726
aF0.03387204001216636
asL20130302033938L
(lp1022
F1332.628902165913
aF1254.6004572241254
aF0.06219385980013895
asL20130117812243L
(lp1023
F1336.7954087371547
aF1253.4029187028905
aF0.0665328672766812
asL20130907652116L
(lp1024
F1288.0371149246007
aF1253.9452925468227
aF0.02718764732433895
asL20131026652013L
(lp1025
F1287.7944320563624
aF1256.66976460444
aF0.024767578825069903
asL20130827766638L
(lp1026
F1305.0441294019274
aF1257.4239478310553
aF0.037871222075110525
asL20130524602405L
(lp1027
F1316.6416206635522
aF1257.4502255900868
aF0.04707255513488696
asL20131209961510L
(lp1028
F1306.5787184755945
aF1257.4502255900868
aF0.03906993047176328
asL20131014631466L
(lp1029
F1273.006074523291
aF1249.218416139036
aF0.019042033063982288
asL20130810273857L
(lp1030
F1298.5524052341086
aF1257.2399096697977
aF0.03285967558503709
asL20130605613122L
(lp1031
F1304.6869414665555
aF1256.5486554891495
aF0.03830992597629791
asL20130110308423L
(lp1032
F1308.893576019976
aF1258.7690824825013
aF0.03982024521814675
asL20130201886796L
(lp1033
F1292.5403890790399
aF1247.8769454723517
aF0.03579154480635263
asL20130424225870L
(lp1034
F1312.9260714510158
aF1257.9480089052704
aF0.0437045586594553
asL20130521391185L
(lp1035
F1328.164797987011
aF1254.46852534679
aF0.05874700811632407
asL20130425258072L
(lp1036
F1289.0940965164289
aF1249.297006709132
aF0.03185558725713232
asL20131107577950L
(lp1037
F1280.1870353669035
aF1247.7888083587823
aF0.025964511615338703
asL20130309546081L
(lp1038
F1283.229564455881
aF1249.297006709132
aF0.027161321578872147
asL20131005956201L
(lp1039
F1321.8458688070525
aF1259.3740599448872
aF0.049605443568449537
asL20130113511532L
(lp1040
F1291.9881295872758
aF1255.5548280454711
aF0.029017690608159726
asL20130516967534L
(lp1041
F1294.8953645768247
aF1255.0570447302873
aF0.031742238341922274
asL20130705137782L
(lp1042
F1304.5530437868945
aF1258.7690824825013
aF0.03637200972087718
asL20130519195774L
(lp1043
F1298.9631014433537
aF1255.2652148126826
aF0.03481167654055633
asL20130812461183L
(lp1044
F1311.8849573971813
aF1259.266865797685
aF0.04178470269378935
asL20130907644033L
(lp1045
F1308.2227860622233
aF1256.5486554891495
aF0.041123859666984515
asL20130827714690L
(lp1046
F1315.8523369828247
aF1257.2801966666682
aF0.04658638581236257
asL20130824503430L
(lp1047
F1285.7750521331923
aF1248.5956224067518
aF0.029776998300518352
asL20130721538186L
(lp1048
F1311.3430011727198
aF1256.5486554891495
aF0.04360702265225056
asL20131221889186L
(lp1049
F1404.1779442137808
aF1258.063705373235
aF0.11614216213096894
asL20130531197096L
(lp1050
F1333.3995305470153
aF1255.160348468283
aF0.06233401347820645
asL20130115641517L
(lp1051
F1307.707953592869
aF1257.4239478310553
aF0.03998969945542162
asL20131220829410L
(lp1052
F1306.9043868455599
aF1258.4630745786583
aF0.038492438312598146
asL20130207269048L
(lp1053
F1276.7593416950272
aF1253.4684673055942
aF0.0185811410473676
asL20130421973189L
(lp1054
F1337.607745952927
aF1253.7016608662316
aF0.0669266761828499
asL20130622087366L
(lp1055
F1333.0577491834526
aF1255.1378290780915
aF0.06208076778515546
asL20131114148043L
(lp1056
F1304.7297590675394
aF1256.9261645158715
aF0.03803214214263755
asL20130517123280L
(lp1057
F1268.6478242226826
aF1248.499739204636
aF0.016137836785518386
asL20131216433362L
(lp1058
F1321.8031714958151
aF1256.0196349612327
aF0.052374608408580256
asL20130607792339L
(lp1059
F1324.3603541501204
aF1259.266865797685
aF0.05169157556702782
asL20130813567189L
(lp1060
F1305.902579436461
aF1257.615621999218
aF0.03839564060160271
asL20130619793624L
(lp1061
F1280.2825760602716
aF1247.958289365927
aF0.02590173643605369
asL20130726936794L
(lp1062
F1279.7737342452856
aF1250.2917662708658
aF0.023580070484150336
asL20131029868766L
(lp1063
F1329.0208441560721
aF1253.536671842646
aF0.0602169637386576
asL20130811363556L
(lp1064
F1312.3622674228777
aF1258.7690824825013
aF0.042575866921263895
asL20131018006759L
(lp1065
F1286.9549404453978
aF1248.4143173263176
aF0.030871660621147996
asL20130616525032L
(lp1066
F1329.580057043252
aF1253.5588351073313
aF0.0606443190433991
asL20130908725481L
(lp1067
F1320.3797608614366
aF1258.618378008746
aF0.0490707778718462
asL20130625315051L
(lp1068
F1334.1765280899333
aF1255.088565755595
aF0.06301384977300413
asL20130603385073L
(lp1069
F1288.951052507999
aF1247.7888083587823
aF0.03298814981627984
asL20131006021877L
(lp1070
F1331.4404200010845
aF1255.3018415265058
aF0.06065360215037256
asL20130203017464L
(lp1071
F1258.5780535263914
aF1248.5783297747319
aF0.008008887799184915
asL20131220824313L
(lp1072
F1303.0830213595536
aF1257.9480089052704
aF0.03587987113518467
asL20130228904187L
(lp1073
F1322.754062146077
aF1256.916704523343
aF0.05238004824488462
asL20130114527489L
(lp1074
F1297.1451379193584
aF1255.9664559663545
aF0.032786450432165846
asL20130215887106L
(lp1075
F1307.0387159013715
aF1257.9480089052704
aF0.03902443236809307
asL20130531221766L
(lp1076
F1336.0863093878538
aF1254.6818011177006
aF0.06488060016303426
asL20130529986113L
(lp1077
F1292.1501625440385
aF1250.2925162979886
aF0.033478282642198674
asL20130107089172L
(lp1078
F1300.9295860498753
aF1256.0508721739657
aF0.035730012908023225
asL20130128584982L
(lp1079
F1325.4895903155348
aF1254.1043030052706
aF0.05692133193323727
asL20130507235607L
(lp1080
F1299.5261192632108
aF1257.1055156967154
aF0.03374466425993285
asL20130224595224L
(lp1081
F1302.3591689917641
aF1258.618378008746
aF0.03475302104854069
asL20130514805023L
(lp1082
F1316.7051115811696
aF1258.6486952595649
aF0.04612598935688885
asL20131229384995L
(lp1083
F1280.6558736946274
aF1248.5074852931823
aF0.0257494558744242
asL20130512658725L
(lp1084
F1324.021921560121
aF1252.2890987976198
aF0.057281360056056684
asL20130328094281L
(lp1085
F1286.2696892477754
aF1249.3687894218199
aF0.029535634424670127
asL20130913165553L
(lp1086
F1285.9528276597891
aF1248.4143173263176
aF0.03006895211989108
asL20130503917878L
(lp1087
F1305.4012334993295
aF1259.266865797685
aF0.03663589422915566
asL20130225612360L
(lp1088
F1281.9610110139358
aF1249.5093989803697
aF0.025971482935660522
asL20130919645497L
(lp1089
F1332.485814679297
aF1253.9402905568563
aF0.06263896671472267
asL20130118902076L
(lp1090
F1293.7338999471685
aF1257.615621999218
aF0.02871964797203585
asL20130602352956L
(lp1091
F1306.5509140283973
aF1256.5486554891495
aF0.039793332570781284
asL20130411184451L
(lp1092
F1306.8824796501247
aF1256.9261645158715
aF0.03974482872945425
asL20130225628747L
(lp1093
F1292.7626046386235
aF1249.3687894218199
aF0.03473259103653882
asL20130721481041L
(lp1094
F1286.8386876748812
aF1249.297006709132
aF0.030050244869024908
asL20131022299482L
(lp1095
F1319.6904099288988
aF1253.0786202135694
aF0.05315850788674092
asL20130707276123L
(lp1096
F1302.1517469985765
aF1255.446434704352
aF0.037202154550881564
asL20130506187106L
(lp1097
F1306.842855224242
aF1259.266865797685
aF0.037780704566080764
asL20131029881082L
(lp1098
F1333.6878375815259
aF1254.512320110556
aF0.06311258662170208
asL20130903310699L
(lp1099
F1289.3219342396983
aF1249.1590925048492
aF0.03215190280872341
asL20130228871539L
(lp1100
F1327.1438713254263
aF1256.898475206252
aF0.055887883949932646
asL20130117804408L
(lp1101
F1328.6127839627848
aF1253.3529460566947
aF0.06004680337080864
asL20130901172600L
(lp1102
F1302.8617401504753
aF1255.5548280454711
aF0.037678093419979956
asL20131026624889L
(lp1103
F1312.187903529342
aF1258.618378008746
aF0.04256216694161744
asL20130401337731L
(lp1104
F1297.734781336278
aF1253.9452925468227
aF0.03492137101174235
asL20130418762116L
(lp1105
F1411.0829964965922
aF1254.3614213996989
aF0.12494132267079217
asL20131020153233L
(lp1106
F1288.5129956704363
aF1248.6501124874198
aF0.03192478243853769
asL20130627518867L
(lp1107
F1317.7133561809928
aF1255.9664559663545
aF0.04916285775094972
asL20130612199834L
(lp1108
F1338.4146060552077
aF1255.1481763631205
aF0.06633992006693391
asL20130221384101L
(lp1109
F1304.5164922812855
aF1255.8614899228903
aF0.03874233165743671
asL20131015734874L
(lp1110
F1282.540939158599
aF1248.676966300327
aF0.027119882701613984
asL20130809192876L
(lp1111
F1311.9131847440296
aF1257.4239478310553
aF0.04333402191596829
asL20130117820852L
(lp1112
F1321.5700108729973
aF1255.160348468283
aF0.052909305560645166
asL20130215895481L
(lp1113
F1308.4478455138742
aF1256.5486554891495
aF0.041302968888635175
asL20130110259642L
(lp1114
F1308.4246972492615
aF1257.2801966666682
aF0.04067868142534087
asL20131106488766L
(lp1115
F1347.1260499089815
aF1254.7078102919422
aF0.07365718046780598
asL20130106016192L
(lp1116
F1320.939578906405
aF1252.2546493726984
aF0.05484901139565613
asL20130620834246L
(lp1117
F1308.1708321035678
aF1258.7690824825013
aF0.039246078020631146
asL20131229352393L
(lp1118
F1302.0083626621713
aF1255.1378290780915
aF0.03734293756288627
asL20130415509972L
(lp1119
F1301.7114511416598
aF1257.4239478310553
aF0.03522082062060017
asL20130323644885L
(lp1120
F1302.4295187860341
aF1256.0508721739657
aF0.03692417850225808
asL20130822332893L
(lp1121
F1331.1722645150996
aF1258.5083956747799
aF0.05773808827183808
asL20130204074464L
(lp1122
F1280.5334922224733
aF1248.5074852931823
aF0.025651433657020082
asL20130430722531L
(lp1123
F1292.4096119746252
aF1248.676966300327
aF0.03502318602374209
asL20130510512612L
(lp1124
F1300.8228313913087
aF1256.1652107754564
aF0.035550754178492315
asL20131014607335L
(lp1125
F1292.0281837286682
aF1257.1055156967154
aF0.027780220193050258
asL20130810257907L
(lp1126
F1333.4292048675452
aF1253.4512499643279
aF0.06380619501994467
asL20130623111670L
(lp1127
F1323.6709286357059
aF1258.2286264204868
aF0.05201145550264168
asL20130129625592L
(lp1128
F1305.7914427654664
aF1258.303148192777
aF0.03773994735759343
asL20130903327224L
(lp1129
F1272.914918644439
aF1247.7888083587823
aF0.020136508772430124
asL20130511569404L
(lp1130
F1292.7850603150505
aF1248.5074852931823
aF0.03546440493424086
asL20130322612733L
(lp1131
F1328.5571475016948
aF1253.3529460566947
aF0.06000241327202199
asL20130617606419L
(lp1132
F1292.5448283040287
aF1248.5783297747319
aF0.03521324812455238
asL20130218140163L
(lp1133
F1303.0340475871876
aF1256.0508721739657
aF0.037405471748054066
asL20131111903750L
(lp1134
F1300.6703514173953
aF1257.4239478310553
aF0.03439285824079951
asL20131203498504L
(lp1135
F1291.6425848598165
aF1249.297006709132
aF0.033895525181982356
asL20130927272213L
(lp1136
F1293.8653872238663
aF1250.7959035670851
aF0.03443366222575028
asL20131116286481L
(lp1137
F1286.8598608319833
aF1248.6501124874198
aF0.030600844834303722
asL20130429592092L
(lp1138
F1312.5011389727774
aF1253.6299105605592
aF0.04696061247126276
asL20130425250342L
(lp1139
F1291.9733609422608
aF1248.4143173263176
aF0.03489149636575139
asL20130920727081L
(lp1140
F1281.3116952084888
aF1250.9352337943108
aF0.02428300090488361
asL20131122717230L
(lp1141
F1290.6325785038425
aF1258.7690824825013
aF0.02531321786081776
asL20130203001394L
(lp1142
F1288.8395549741995
aF1249.218416139036
aF0.03171674250338119
asL20131121611316L
(lp1143
F1304.853775282557
aF1255.2652148126826
aF0.03950444884850434
asL20130829861432L
(lp1144
F1299.7441475904627
aF1248.3695710888996
aF0.04115333927656632
asL20130324759101L
(lp1145
F1331.1893883750615
aF1252.4684757904165
aF0.0628526099508934
asL20131004842557L
(lp1146
F1327.4681281762566
aF1258.180581083737
aF0.055069636373531225
asL20130726961728L
(lp1147
F1286.0034776259477
aF1249.3687894218199
aF0.02932255753009605
asL20130223514183L
(lp1148
F1307.195730159733
aF1256.5486554891495
aF0.04030649704596413
asL20130521424456L
(lp1149
F1323.8118799393842
aF1251.3933452440608
aF0.057870321086931714
asL20130527838793L
(lp1150
F1331.7195935496604
aF1254.1043030052706
aF0.06188902339175185
asL20131113024349L
(lp1151
F1331.0800982503522
aF1252.0188542115961
aF0.06314700754929238
asL20130512659022L
(lp1152
F1303.2531057993688
aF1256.0508721739657
aF0.037579874088782515
asL20130503975510L
(lp1153
F1337.04699561114
aF1254.7140820236468
aF0.06561886470159294
asL20130131793529L
(lp1154
F1327.7374860841285
aF1252.6281895314066
aF0.059961365375961515
asL20131011461739L
(lp1155
F1292.4628906368393
aF1248.5783297747319
aF0.03514762335337434
asL20130315010675L
(lp1156
F1313.3262594104815
aF1257.1074959696032
aF0.044720728832753444
asL20130901156481L
(lp1157
F1276.1533991147646
aF1253.4872293643998
aF0.018082489569405544
asL20130423087755L
(lp1158
F1335.6454024821608
aF1252.1042760899145
aF0.06672058229297759
asL20130514829964L
(lp1159
F1307.983570937707
aF1259.266865797685
aF0.03868656157260383
asL20131118367377L
(lp1160
F1280.0245655261256
aF1248.5783297747319
aF0.02518563313289863
asL20130524660371L
(lp1161
F1306.7640958354102
aF1258.5126825710697
aF0.03834002941135691
asL20130609955490L
(lp1162
F1430.0441572585567
aF1272.3492855691702
aF0.12393992237661652
asL20130423153333L
(lp1163
F1286.6917129866583
aF1248.5074852931823
aF0.030583899690845164
asL20130614411957L
(lp1164
F1282.4972982926427
aF1247.8769454723517
aF0.02774340286187936
asL20130910880446L
(lp1165
F1299.525047311277
aF1255.6674274602726
aF0.034927735554717086
asL20131213294842L
(lp1166
F1287.23955944043
aF1249.218416139036
aF0.03043594523598689
asL20130812397193L
(lp1167
F1362.748109372969
aF1265.7296978271843
aF0.07665018187716663
asL20130816839713L
(lp1168
F1327.4672423788716
aF1261.2956860628258
aF0.05246315915231771
asL20130328117964L
(lp1169
F1292.0152251816367
aF1247.8769454723517
aF0.035370698905393676
asL20130726978257L
(lp1170
F1349.4389183702951
aF1259.451518861436
aF0.07144967325952271
asL20130313880276L
(lp1171
F1321.707419827756
aF1256.3994420790252
aF0.051980266435539386
asL20130605556440L
(lp1172
F1301.0618309273902
aF1256.5486554891495
aF0.0354249517070333
asL20130917483227L
(lp1173
F1331.53756555673
aF1253.6870451254301
aF0.06209725204866497
asL20130508317407L
(lp1174
F1323.78903145294
aF1255.148588399655
aF0.054687105325755304
asL20130530108127L
(lp1175
F1336.8265136171615
aF1253.8656733146456
aF0.06616405733734257
asL20130813502178L
(lp1176
F1415.1129297557143
aF1269.5923974833145
aF0.1146198831694818
asL20130216012773L
(lp1177
F1308.0208993429624
aF1257.603299011899
aF0.0400902258849643
asL20130324767462L
(lp1178
F1329.2203415151064
aF1252.6281895314066
aF0.061145160729898604
asL20130805867241L
(lp1179
F1283.254688675047
aF1248.6501124874198
aF0.0277135891324206
asL20130723644141L
(lp1180
F1330.2540122937953
aF1253.6299105605592
aF0.06112178808734208
asL20130308530927L
(lp1181
F1278.7608171121801
aF1248.5074852931823
aF0.024231598268626756
asL20131011412722L
(lp1182
F1307.6425182774465
aF1259.266865797685
aF0.03841572727248541
asL20130806948609L
(lp1183
F1337.2662809587569
aF1252.9812030483677
aF0.06726763155371583
asL20130304172807L
(lp1184
F1278.8821871626658
aF1247.8769454723517
aF0.024846393550910433
asL20130206228803L
(lp1185
F1293.178662430735
aF1248.676966300327
aF0.03563907826558287
asL20130519237401L
(lp1186
F1294.5140310511367
aF1258.7690824825013
aF0.0283967481137529
asL20131020145435L
(lp1187
F1284.823693213727
aF1248.5783297747319
aF0.029029306832142845
asL20131215418143L
(lp1188
F1312.8682044720085
aF1253.314781589321
aF0.047516732234792754
asL20130512683813L
(lp1189
F1287.1303741811441
aF1248.5074852931823
aF0.030935248160640517
asL20131224044328L
(lp1190
F1282.5859800888309
aF1250.7959035670851
aF0.025415878346807124
asL20130618647337L
(lp1191
F1314.5101735430374
aF1255.5753861522846
aF0.0469384698368121
asL20130504008502L
(lp1192
F1296.7775052799236
aF1254.844154672068
aF0.03341717810273749
asL20130112422716L
(lp1193
F1337.4161271847568
aF1254.46852534679
aF0.06612170824695367
asL20131017884477L
(lp1194
F1267.1225329158465
aF1248.499739204636
aF0.014916137445951164
asL20130417623881L
(lp1195
F1298.719040068545
aF1258.113405314402
aF0.03227501955119513
asL20130613265226L
(lp1196
F1317.6121185529694
aF1256.0508721739657
aF0.0490117460548822
asL20130413339470L
(lp1197
F1297.9786683493014
aF1247.8769454723517
aF0.040149570082797674
asL20130413364052L
(lp1198
F1279.4001627811697
aF1249.297006709132
aF0.024096076361645017
asL20130503959388L
(lp1199
F1304.788708226866
aF1256.0508721739657
aF0.03880243796857141
asL20130908734302L
(lp1200
F1290.1456100514038
aF1248.5783297747319
aF0.03329168806267162
asL20130807014239L
(lp1201
F1363.2410824652945
aF1247.5920837690796
aF0.09269776572069105
asL20130220254060L
(lp1202
F1284.412247315909
aF1251.4651418572223
aF0.026326826338760042
asL20131217523568L
(lp1203
F1328.9465491659973
aF1252.7329056478895
aF0.06083790341460821
asL20130112463741L
(lp1204
F1321.2646201127766
aF1252.1828666600104
aF0.05516906139838047
asL20131230401406L
(lp1205
F1291.806190655387
aF1249.1329942607176
aF0.03416225221072223
asL20131109716864L
(lp1206
F1331.5187976287132
aF1253.9402905568563
aF0.06186778402136307
asL20130603418506L
(lp1207
F1303.5834281679724
aF1259.266865797685
aF0.035192351656306714
asL20130703000467L
(lp1208
F1303.5563223349445
aF1257.603299011899
aF0.036540158060296805
asL20130305221526L
(lp1209
F1283.1087599566154
aF1248.0328618767926
aF0.028104947514823935
asL20130314986392L
(lp1210
F1325.9523478225678
aF1252.1828666600104
aF0.05891270606451058
asL20131102147481L
(lp1211
F1297.5990368450518
aF1259.266865797685
aF0.030440069605964848
asL20130811377280L
(lp1212
F1419.4378892267143
aF1271.5817224754007
aF0.11627736081600837
asL20131105416094L
(lp1213
F1280.9209550091498
aF1248.4143173263176
aF0.02603834098318454
asL20130825593763L
(lp1214
F1314.0196867105285
aF1256.0508721739657
aF0.04615164546339651
asL20131231490984L
(lp1215
F1278.4065163232276
aF1247.7888083587823
aF0.0245375721911762
asL20131104342953L
(lp1216
F1308.5479251724564
aF1258.8009315079605
aF0.039519349262716455
asL20130409038765L
(lp1217
F1308.6861602063325
aF1255.468672651171
aF0.04238854279237596
asL20130420876206L
(lp1218
F1321.2391843590278
aF1253.8656733146456
aF0.053732638573857405
asL20130420884405L
(lp1219
F1328.4561248114978
aF1253.1889336082804
aF0.060060529729146404
asL20130805801913L
(lp1220
F1273.0617529271242
aF1250.1928453485605
aF0.01829230399425918
asL20131212139528L
(lp1221
F1331.7230777195293
aF1254.1043030052706
aF0.061891801605541995
asL20131221857216L
(lp1222
F1303.6552538922433
aF1259.266865797685
aF0.03524938938692736
asL20130130740165L
(lp1223
F1308.267627646899
aF1258.7690824825013
aF0.03932297500251464
asL20130724802464L
(lp1224
F1281.8757885778998
aF1248.4143173263176
aF0.02680317806931709
asL20130612184010L
(lp1225
F1301.4016768104273
aF1254.9245533071808
aF0.03703579102087249
asL20131201360853L
(lp1226
F1314.6343255822126
aF1254.8670817551274
aF0.04762834621774551
asL20131127116758L
(lp1227
F1306.0429337985088
aF1256.5486554891495
aF0.039389066307259024
asL20131204572122L
(lp1228
F1305.6497750440876
aF1256.0508721739657
aF0.039487972954691274
asL20130827731931L
(lp1229
F1305.8049626038037
aF1256.5486554891495
aF0.03919968152405502
asL20131216483293L
(lp1230
F1316.8909843673032
aF1253.314781589321
aF0.05072644455478422
asL20130817901538L
(lp1231
F1280.5952021975313
aF1248.499739204636
aF0.02570722442708876
asL20130820137962L
(lp1232
F1288.0818070757348
aF1247.6238341269163
aF0.03242802184612867
asL20131127108596L
(lp1233
F1323.6786684687686
aF1263.4109017284434
aF0.0477024273400477
asL20130206254070L
(lp1234
F1297.897912969913
aF1256.0508721739657
aF0.03331635821686006
asL20130405724520L
(lp1235
F1333.096074354746
aF1252.921087964715
aF0.06399045172132084
asL20130510554106L
(lp1236
F1323.8477752932943
aF1252.1828666600104
aF0.05723198307643203
asL20131001582586L
(lp1237
F1295.737172517024
aF1258.960857893842
aF0.02921164259602653
asL20130411136000L
(lp1238
F1299.752168137512
aF1255.7838110735945
aF0.035012680268849794
asL20131031008256L
(lp1239
F1308.7504359975858
aF1256.0508721739657
aF0.04195655207213702
asL20131211068419L
(lp1240
F1288.2190137417515
aF1247.7888083587823
aF0.032401481013559594
asL20131210986506L
(lp1241
F1301.8455569917526
aF1255.468672651171
aF0.0369398977058087
asL20130228872213L
(lp1242
F1337.0768677876283
aF1255.088565755595
aF0.0653247143421104
asL20130926224408L
(lp1243
F1275.94099014186
aF1249.297006709132
aF0.021327181038329014
asL20130710586396L
(lp1244
F1318.4382063274861
aF1258.618378008746
aF0.047528170066434845
asL20131003802656L
(lp1245
F1336.9183286869377
aF1252.5064841245733
aF0.06739433738050724
asL20130611110959L
(lp1246
F1338.3420200269954
aF1253.1642890122655
aF0.06797012312078121
asL20130824455223L
(lp1247
F1298.5173392197423
aF1257.1055156967154
aF0.032942201753108656
asL20130214782012L
(lp1248
F1284.2533094339954
aF1248.4143173263176
aF0.028707610614745915
asL20131118400572L
(lp1249
F1279.7861023819926
aF1249.1329942607176
aF0.024539507211893463
asL20130303122463L
(lp1250
F1280.620988698986
aF1247.693859508454
aF0.026390391312420266
asL20131101058119L
(lp1251
F1288.831724169853
aF1248.5074852931823
aF0.03229795523989313
asL20130421982281L
(lp1252
F1343.9474734956032
aF1253.7016608662316
aF0.07198348334883534
asL20130306353268L
(lp1253
F1281.1878560284633
aF1248.5074852931823
aF0.026175550503493236
asL20130729247825L
(lp1254
F1311.782429706083
aF1258.618378008746
aF0.042240009065692675
asL20131014665298L
(lp1255
F1277.000464490748
aF1249.297006709132
aF0.022175237459819072
asL20130622030931L
(lp1256
F1299.0349320966416
aF1254.4041911836434
aF0.03557923452956978
asL20131119513976L
(lp1257
F1299.2959957397948
aF1259.266865797685
aF0.031787646470593914
asL20131103253607L
(lp1258
F1293.0285244459494
aF1249.1293821762647
aF0.03514379126460265
asL20131107587176L
(lp1259
F1274.8538630929297
aF1248.4143173263176
aF0.021178502520891235
asL20130103780461L
(lp1260
F1282.134240825428
aF1249.1329942607176
aF0.026419321814681263
asL20130715985005L
(lp1261
F1411.973862883959
aF1270.259377567777
aF0.1115634238320124
asL20130529010803L
(lp1262
F1310.190950976472
aF1257.4239478310553
aF0.04196436948448068
asL20130928411769L
(lp1263
F1304.280774527129
aF1258.113405314402
aF0.036695713611914
asL20130907645051L
(lp1264
F1309.8138823823538
aF1258.7690824825013
aF0.040551361334029326
asL20130223531139L
(lp1265
F1281.800127755014
aF1248.5956224067518
aF0.02659348211093225
asL20131012478085L
(lp1266
F1316.3909970896912
aF1255.160348468283
aF0.04878312854300256
asL20130421933195L
(lp1267
F1276.301237851854
aF1250.7959035670851
aF0.020391283831384027
asL20131018994048L
(lp1268
F1276.698106914725
aF1248.7515388111926
aF0.02237960653897367
asL20130414421719L
(lp1269
F1291.9760990865525
aF1257.4502255900868
aF0.02745704982498504
asL20130620875922L
(lp1270
F1300.6251174201632
aF1258.8009315079605
aF0.033225417034050055
asL20130210503726L
(lp1271
F1306.4420265874337
aF1258.113405314402
aF0.038413565159457534
asL20130624242844L
(lp1272
F1308.358847346373
aF1258.7690824825013
aF0.039395442384136524
asL20130814641322L
(lp1273
F1307.223855567246
aF1259.0671796305805
aF0.03824790028344228
asL20130809210027L
(lp1274
F1313.1378066749974
aF1258.7690824825013
aF0.04319197615282379
asL20130219213997L
(lp1275
F1280.8215080797463
aF1249.297006709132
aF0.02523379244592565
asL20130817893558L
(lp1276
F1282.975446166336
aF1248.5783297747319
aF0.027549025616847047
asL20130701796538L
(lp1277
F1270.5846526441653
aF1252.7240710475307
aF0.01425739475230129
asL20130808112315L
(lp1278
F1326.7229753900249
aF1258.7690824825013
aF0.053984399405097604
asL20131107529919L
(lp1279
F1290.2661039828447
aF1256.9261645158715
aF0.02652497848178273
asL20130414380231L
(lp1280
F1281.5025908373525
aF1254.4041911836434
aF0.02160260611704373
asL20131101131976L
(lp1281
F1320.2880089381629
aF1254.0257124351747
aF0.052839663370469796
asL20130213758156L
(lp1282
F1336.9532649360744
aF1254.2990443396452
aF0.06589674206436509
asL20131009250509L
(lp1283
F1308.96550493528
aF1255.1141592706954
aF0.04290553593617002
asL20131202401487L
(lp1284
F1296.8550010451015
aF1248.4143173263176
aF0.03880176880903412
asL20131124888785L
(lp1285
F1283.6282878090503
aF1248.172846499197
aF0.028405874562402702
asL20130519196882L
(lp1286
F1306.436173545562
aF1256.0508721739657
aF0.0401140610526306
asL20130624234378L
(lp1287
F1356.4937403860786
aF1253.7870827445497
aF0.08191714450965884
asL20130215937237L
(lp1288
F1311.2337614048831
aF1256.5486554891495
aF0.04352008629100462
asL20130724742367L
(lp1289
F1333.0922137265231
aF1253.9402905568563
aF0.06312256154917602
asL20130528945385L
(lp1290
F1336.0710046944275
aF1255.3018415265058
aF0.06434242386652017
asL20130331329772L
(lp1291
F1315.2344340529107
aF1258.7690824825013
aF0.0448575933077816
asL20130615477487L
(lp1292
F1297.419426193945
aF1252.6316270917816
aF0.03575496429556589
asL20130816845041L
(lp1293
F1342.6259082731085
aF1255.3018415265058
aF0.06956419871129368
asL20130422007027L
(lp1294
F1318.2530892115276
aF1253.076151898696
aF0.05201354858926463
asL20130505090293L
(lp1295
F1322.6841196737537
aF1257.479284888681
aF0.05185360551752155
asL20130323670262L
(lp1296
F1302.7237882518525
aF1256.0508721739657
aF0.03715845998904935
asL20131111841314L
(lp1297
F1300.1708373121764
aF1257.2399096697977
aF0.0341469653581504
asL20130712708346L
(lp1298
F1298.281553929581
aF1251.6091600609616
aF0.03728991074685494
asL20130708362984L
(lp1299
F1295.8782554700185
aF1248.5783297747319
aF0.03788302629264798
asL20130414429447L
(lp1300
F1291.0646867405835
aF1257.2801966666682
aF0.026871090599760963
asL20130319336715L
(lp1301
F1294.0957971882929
aF1247.7888083587823
aF0.03711123911298597
asL20131028726391L
(lp1302
F1297.0971115367356
aF1258.7690824825013
aF0.03044881669531086
asL20130722628888L
(lp1303
F1371.5856944975544
aF1265.5596114386888
aF0.0837780236510038
asL20130804712729L
(lp1304
F1285.1093583895215
aF1249.5093989803697
aF0.02849114975701841
asL20130225649390L
(lp1305
F1275.2444555048264
aF1248.7515388111926
aF0.021215522760320245
asL20130707318043L
(lp1306
F1286.4109099161215
aF1252.5501993701496
aF0.027033415956501286
asL20130522473756L
(lp1307
F1308.7756758378378
aF1257.7779799818518
aF0.04054586474532
asL20130811324254L
(lp1308
F1291.559474668274
aF1255.2652148126826
aF0.02891361875347393
asL20130618729764L
(lp1309
F1381.7609111911015
aF1269.398335020697
aF0.0885164042448287
asL20130727011622L
(lp1310
F1305.9788421251856
aF1258.7690824825013
aF0.037504702252123004
asL20130718278954L
(lp1311
F1321.6602294615936
aF1252.1828666600104
aF0.05548499716091992
asL20130609956139L
(lp1312
F1302.8972932268193
aF1256.9261645158715
aF0.036574247564219065
asL20130723693868L
(lp1313
F1336.7246799494387
aF1265.3653136187597
aF0.056394280420570125
asL20130913174832L
(lp1314
F1277.684680118391
aF1249.3687894218199
aF0.022664157241894224
asL20131124897075L
(lp1315
F1314.83128638712
aF1253.7870827445497
aF0.04868785496572829
asL20130318230841L
(lp1316
F1311.957874736431
aF1258.618378008746
aF0.042379404003358906
asL20130926186909L
(lp1317
F1291.2102890307235
aF1248.2996830140705
aF0.03437524386214982
asL20130629690685L
(lp1318
F1275.0537788170714
aF1248.5783297747319
aF0.021204475851439933
asL20130606720325L
(lp1319
F1356.7958573588573
aF1272.145890571915
aF0.06654108417461965
asL20130428527943L
(lp1320
F1306.8626175101301
aF1256.1652107754564
aF0.040358868642268106
asL20130513757514L
(lp1321
F1332.2913791826172
aF1251.5628262512055
aF0.06450219776279008
asL20130609931599L
(lp1322
F1287.4783626260344
aF1248.5074852931823
aF0.031213971715756822
asL20131018958162L
(lp1323
F1289.3469453716095
aF1248.5074852931823
aF0.032710624933768064
asL20130416584020L
(lp1324
F1335.0258517071568
aF1253.9374560273338
aF0.06466701771292759
asL20130815706455L
(lp1325
F1287.984653485716
aF1252.2042883431136
aF0.02857390401525153
asL20130804745564L
(lp1326
F1280.5870906241664
aF1248.0849196082265
aF0.02604163427128205
asL20131231475037L
(lp1327
F1280.868478202684
aF1249.4741684141604
aF0.02512601747371004
asL20131118441823L
(lp1328
F1296.8416153724384
aF1248.5783297747319
aF0.03865459174388694
asL20130329134444L
(lp1329
F1288.6931420972383
aF1249.1329942607176
aF0.031670084785434524
asL20130915280238L
(lp1330
F1297.6577899202641
aF1254.4951511945314
aF0.034406381471170436
asL20130727077231L
(lp1331
F1292.706544509368
aF1248.6501124874198
aF0.03528324835064003
asL20130413364593L
(lp1332
F1282.5416245951385
aF1248.4143173263176
aF0.027336523456339475
asL20130619794803L
(lp1333
F1279.5114866030437
aF1249.297006709132
aF0.02418518553366434
asL20130714895734L
(lp1334
F1302.932516869575
aF1258.618378008746
aF0.03520855855524543
asL20130911978878L
(lp1335
F1326.474383922888
aF1258.2705181936583
aF0.05420445344864424
asL20130802623871L
(lp1336
F1280.3228245772418
aF1249.297006709132
aF0.024834621152128897
asL20130521359749L
(lp1337
F1307.1550536888788
aF1255.8614899228903
aF0.04084332880462626
asL20130614388110L
(lp1338
F1274.620471433092
aF1248.499739204636
aF0.0209216961832098
asL20130906555805L
(lp1339
F1281.7663117501709
aF1249.218416139036
aF0.026054607577536994
asL20131226133924L
(lp1340
F1271.9458702071245
aF1248.5956224067518
aF0.018701209087505475
asL20130720466346L
(lp1341
F1396.3388127792753
aF1261.5695550805249
aF0.10682665664847008
asL20130318263724L
(lp1342
F1277.8778115483638
aF1252.1828666600104
aF0.02052012175896508
asL20130409031086L
(lp1343
F1337.797197155469
aF1251.5073843215873
aF0.06894870451016735
asL20130429625777L
(lp1344
F1342.1001842680325
aF1253.076151898696
aF0.07104439122430413
asL20130905466292L
(lp1345
F1287.2459839688358
aF1247.7888083587823
aF0.03162167775967765
asL20130321532343L
(lp1346
F1328.7888102981108
aF1251.6373987620711
aF0.06164038531634325
asL20130120017336L
(lp1347
F1294.5274634092477
aF1255.2652148126826
aF0.0312780503540234
asL20130829936059L
(lp1348
F1287.292869507509
aF1250.7959035670851
aF0.02917899382012683
asL20130519205313L
(lp1349
F1304.9893325386217
aF1258.7690824825013
aF0.03671860923448045
asL20130322580932L
(lp1350
F1270.8903569581844
aF1250.077226632685
aF0.01664947563404808
asL20131008136646L
(lp1351
F1273.458771823345
aF1248.5956224067518
aF0.019912891708420196
asL20130805867981L
(lp1352
F1332.9342007236376
aF1253.9374560273338
aF0.06299895127670684
asL20130425333201L
(lp1353
F1303.546847226224
aF1248.5074852931823
aF0.04408412651215858
asL20130830025610L
(lp1354
F1306.0598368093395
aF1259.1161613239296
aF0.03728303783826402
asL20131122725304L
(lp1355
F1303.6849465104299
aF1254.8670817551274
aF0.038902817250591255
asL20131230459357L
(lp1356
F1286.0512935685847
aF1248.5074852931823
aF0.030070951690438705
asL20130621007330L
(lp1357
F1339.2976687392145
aF1254.1043030052706
aF0.06793164295010465
asL20130416526821L
(lp1358
F1303.5447339266839
aF1257.615621999218
aF0.036520786736453516
asL20131218646515L
(lp1359
F1285.20401282304
aF1249.1329942607176
aF0.02887684396141551
asL20130901171303L
(lp1360
F1316.504517953524
aF1255.7838110735945
aF0.04835283457589588
asL20131011413499L
(lp1361
F1309.600055278485
aF1257.9480089052704
aF0.04106055735814129
asL20130315036157L
(lp1362
F1303.781845095846
aF1256.0508721739657
aF0.03800082781620761
asL20131205637636L
(lp1363
F1297.8675176133727
aF1253.9452925468227
aF0.03502722593052038
asL20131216467466L
(lp1364
F1330.5451751460416
aF1253.076151898696
aF0.06182307685766932
asL20130113521165L
(lp1365
F1299.7762797925072
aF1255.8614899228903
aF0.03496786088433469
asL20130904385040L
(lp1366
F1282.3519099645177
aF1249.3687894218199
aF0.0263998275144697
asL20130414421525L
(lp1367
F1311.6618717311007
aF1257.4502255900868
aF0.04311235946979445
asL20130708399640L
(lp1368
F1271.7654252241516
aF1249.1329942607176
aF0.018118511853758762
asL20130503976474L
(lp1369
F1321.4222322925968
aF1254.7563736285665
aF0.05313052004768281
asL20131206710810L
(lp1370
F1258.4677761440464
aF1248.824897207556
aF0.007721562052496281
asL20131116279327L
(lp1371
F1300.9146609433544
aF1255.468672651171
aF0.03619842476532315
asL20130214864425L
(lp1372
F1311.137479816484
aF1256.5486554891495
aF0.04344346244681169
asL20130110248732L
(lp1373
F1285.31555655686
aF1255.0570447302873
aF0.024109272127208557
asL20130312832561L
(lp1374
F1333.1316353163313
aF1255.3018415265058
aF0.06200086004429092
asL20130227815989L
(lp1375
F1280.3501609303662
aF1248.499739204636
aF0.02551095585011556
asL20131024471607L
(lp1376
F1318.2345569551742
aF1253.4029187028905
aF0.0517244991892759
asL20130411169340L
(lp1377
F1293.0151295783985
aF1254.844154672068
aF0.03041889685202047
asL20130810267198L
(lp1378
F1317.291090028006
aF1256.5486554891495
aF0.04834069438816174
asL20130115626562L
(lp1379
F1343.5096619023868
aF1255.6354210136485
aF0.06998388180049847
asL20130108148853L
(lp1380
F1310.0278614990061
aF1263.691297119214
aF0.03666762957489998
asL20130528945735L
(lp1381
F1315.654460341388
aF1259.266865797685
aF0.044778113420767214
asL20130419803721L
(lp1382
F1308.64201489278
aF1256.0508721739657
aF0.0418702330326716
asL20130219173451L
(lp1383
F1295.5674660440934
aF1248.5222434057885
aF0.03768072446188253
asL20130818942543L
(lp1384
F1258.0514125424836
aF1246.943813164085
aF0.008907858767279495
asL20130831083094L
(lp1385
F1334.0473802458919
aF1254.1043030052706
aF0.06374515823687857
asL20130903320151L
(lp1386
F1387.6528453987873
aF1259.4849958001907
aF0.10176210913665351
asL20130308499042L
(lp1387
F1282.7650026336382
aF1248.4143173263176
aF0.027515452867352744
asL20131114075746L
(lp1388
F1306.8474658977987
aF1258.7690824825013
aF0.038194760329256595
asL20130811356771L
(lp1389
F1373.5296505138897
aF1270.657072076296
aF0.0809601431403491
asL20130319337065L
(lp1390
F1286.1517605135002
aF1247.7888083587823
aF0.030744747747158258
asL20130520311401L
(lp1391
F1310.6911659612413
aF1258.618378008746
aF0.041372976004751594
asL20131207800444L
(lp1392
F1297.3818437432242
aF1259.266865797685
aF0.030267593772821982
asL20131001583232L
(lp1393
F1306.9844381976861
aF1259.756509570326
aF0.03748972779149878
asL20130703025793L
(lp1394
F1291.7210961549895
aF1253.6603642532298
aF0.030359683521167566
asL20131013568136L
(lp1395
F1284.850182288946
aF1248.5783297747319
aF0.029050522221347713
asL20130426357386L
(lp1396
F1305.3234149800353
aF1249.297006709132
aF0.044846347962112565
asL20130809235085L
(lp1397
F1302.916387526482
aF1256.9261645158715
aF0.03658943883018331
asL20130919655061L
(lp1398
F1421.7629483460576
aF1269.6634002839944
aF0.11979517408160462
asL20130709407382L
(lp1399
F1284.7902384055403
aF1248.6501124874198
aF0.028943356955397372
asL20131223963288L
(lp1400
F1310.898829852434
aF1258.7690824825013
aF0.04141327277209899
asL20130809226915L
(lp1401
F1325.4047444974092
aF1259.232576039712
aF0.052549600222231124
asL20130621990571L
(lp1402
F1288.4021360056531
aF1248.499739204636
aF0.031960276440616026
asL20130407835310L
(lp1403
F1269.685301501207
aF1254.1520913913669
aF0.01238542774553564
asL20130103781039L
(lp1404
F1293.8692134041373
aF1255.1243217159526
aF0.0308693657017293
asL20130809202363L
(lp1405
F1312.1268192595796
aF1258.7690824825013
aF0.04238882057052755
asL20130616552584L
(lp1406
F1328.5617879978483
aF1255.088565755595
aF0.05854026898732886
asL20130404607682L
(lp1407
F1304.85733114121
aF1256.3592732380741
aF0.038602061477318844
asL20130530150091L
(lp1408
F1332.5878103061225
aF1253.2456329058407
aF0.06330935876976877
asL20130426390226L
(lp1409
F1345.6414287915147
aF1253.9374560273338
aF0.07313281242488213
asL20130207336148L
(lp1410
F1332.7981647755785
aF1255.088565755595
aF0.061915629813104306
asL20130730321622L
(lp1411
F1328.9361979952769
aF1254.0257124351747
aF0.05973600446727251
asL20131216459487L
(lp1412
F1320.3348017628286
aF1255.3395909911821
aF0.051775002746729304
asL20130211563237L
(lp1413
F1301.7136247550518
aF1258.7690824825013
aF0.03411629890675163
asL20131220784873L
(lp1414
F1301.390242471282
aF1256.0508721739657
aF0.03609676272016205
asL20130403575531L
(lp1415
F1287.574082274461
aF1248.5783297747319
aF0.031232123423738087
asL20131113002731L
(lp1416
F1332.0248177871097
aF1252.0188542115961
aF0.06390156450630592
asL20131109712358L
(lp1417
F1281.7259481682158
aF1247.7888083587823
aF0.027197823527581662
asL20130710562548L
(lp1418
F1333.650081841942
aF1254.9245533071808
aF0.06273327613782911
asL20130908718837L
(lp1419
F1283.2743935603994
aF1248.6028322611048
aF0.027768286602800327
asL20131024454119L
(lp1420
F1290.762442092212
aF1247.7888083587823
aF0.03443982943712489
asL20130318280440L
(lp1421
F1299.2891270879295
aF1256.0508721739657
aF0.03442396790754765
asL20130629641977L
(lp1422
F1278.7950597069228
aF1248.5783297747319
aF0.02420090851460044
asL20130609923846L
(lp1423
F1323.6516806282234
aF1256.9261645158715
aF0.053086265523044844
asL20131104270087L
(lp1424
F1307.6485061423434
aF1258.618378008746
aF0.03895551581820035
asL20130412259088L
(lp1425
F1300.4753473273142
aF1258.7690824825013
aF0.03313257802818074
asL20130731353872L
(lp1426
F1282.0245044983808
aF1249.297006709132
aF0.026196731132382113
asL20130906564369L
(lp1427
F1279.2679995079784
aF1248.5074852931823
aF0.02463782922981253
asL20130823440156L
(lp1428
F1288.904749511571
aF1258.8009315079605
aF0.023914677253652906
asL20130303076143L
(lp1429
F1325.2247222242029
aF1252.2890987976198
aF0.05824184167746245
asL20130920703792L
(lp1430
F1427.9561712968923
aF1278.6144248270218
aF0.11679967280994369
asL20130909792050L
(lp1431
F1302.9871085122866
aF1257.9480089052704
aF0.035803625657161664
asL20130419812153L
(lp1432
F1306.2306227519944
aF1258.7690824825013
aF0.03770472355095587
asL20131205670723L
(lp1433
F1330.525482009974
aF1252.687926680147
aF0.062136429730037204
asL20130514814792L
(lp1434
F1309.5942127222402
aF1252.914607765155
aF0.04523820267223593
asL20130501781782L
(lp1435
F1291.3792605488854
aF1248.6501124874198
aF0.03422027326481828
asL20130216011601L
(lp1436
F1319.8889157520014
aF1255.088565755595
aF0.05163010146411053
asL20131104319314L
(lp1437
F1301.7985434136049
aF1259.1161613239296
aF0.03389868496707703
asL20130214823771L
(lp1438
F1295.6007749443454
aF1256.0508721739657
aF0.03148750074264666
asL20130528946012L
(lp1439
F1267.0029965020674
aF1249.892604991363
aF0.01368948935482552
asL20130321483615L
(lp1440
F1315.7156254395284
aF1257.0561265687058
aF0.04666418438366874
asL20131023382373L
(lp1441
F1311.1534423471085
aF1259.266865797685
aF0.04120379719238916
asL20130703992681L
(lp1442
F1292.3941847718886
aF1252.5324567361195
aF0.03182490627000744
asL20130607810411L
(lp1443
F1320.2605902825414
aF1258.7690824825013
aF0.04885050694029496
asL20130913175407L
(lp1444
F1285.7618751948237
aF1248.4143173263176
aF0.02991599611617077
asL20130619822588L
(lp1445
F1292.8321791060619
aF1248.995080056435
aF0.03509789569999438
asL20131012495224L
(lp1446
F1335.8177404731966
aF1252.4038720097997
aF0.06660301068020355
asL20130607785849L
(lp1447
F1336.7121263271674
aF1253.009442619999
aF0.06680131917613415
asL20130926176142L
(lp1448
F1281.829824500447
aF1247.7888083587823
aF0.027281071855772627
asL20130803689359L
(lp1449
F1297.3826317536236
aF1257.603299011899
aF0.0316310658321104
asL20130316142484L
(lp1450
F1309.0173988916235
aF1256.1652107754564
aF0.042074233279825006
asL20130323646357L
(lp1451
F1290.5507949568528
aF1255.1471125404216
aF0.028206799077738366
asL20131007096725L
(lp1452
F1308.8015870272463
aF1257.9480089052704
aF0.040425818684057764
asL20130921772887L
(lp1453
F1297.9429534544247
aF1257.4345875899078
aF0.032215087976988334
asL20130926225303L
(lp1454
F1282.5080902198179
aF1249.297006709132
aF0.02658381740477375
asL20131105408926L
(lp1455
F1303.3639971778143
aF1256.0508721739657
aF0.03766815982696574
asL20130129610656L
(lp1456
F1301.9312946917512
aF1256.9261645158715
aF0.03580570716595294
asL20130720458657L
(lp1457
F1336.8636454921152
aF1254.3312948629393
aF0.06579788845832327
asL20131104287716L
(lp1458
F1301.2266403542926
aF1258.618378008746
aF0.03385320212228021
asL20130621974435L
(lp1459
F1303.1403040130417
aF1259.1161613239296
aF0.0349643218325637
asL20130804705189L
(lp1460
F1281.5859184763758
aF1248.5783297747319
aF0.02643613773722885
asL20130917451688L
(lp1461
F1284.82225747906
aF1249.218416139036
aF0.0285008937428772
asL20131231523303L
(lp1462
F1277.9623303930389
aF1248.5074852931823
aF0.023592045259496233
asL20130925078445L
(lp1463
F1279.4903214223755
aF1248.5074852931823
aF0.02481589937918361
asL20130331281327L
(lp1464
F1337.9626557752733
aF1254.1043030052706
aF0.06686712785296162
asL20131119482804L
(lp1465
F1295.557001577514
aF1256.0508721739657
aF0.0314526507474744
asL20130925152182L
(lp1466
F1282.5238727730625
aF1248.5783297747319
aF0.027187355561789313
asL20130802595677L
(lp1467
F1281.425911664832
aF1247.958289365927
aF0.026817901354627492
asL20130614380382L
(lp1468
F1280.6844424276667
aF1248.5783297747319
aF0.025714135739267077
asL20130522458049L
(lp1469
F1361.1519273696915
aF1285.5457581610628
aF0.05881250723955651
asL20130502862803L
(lp1470
F1308.7696856966766
aF1259.266865797685
aF0.03931082540445768
asL20131125929942L
(lp1471
F1294.6146605562178
aF1255.2652148126826
aF0.03134751547258251
asL20130315069402L
(lp1472
F1305.6961318056433
aF1256.0508721739657
aF0.03952487970949129
asL20131027699678L
(lp1473
F1328.7623944625773
aF1254.9245533071808
aF0.05883847037720878
asL20130721515489L
(lp1474
F1345.4089222619298
aF1248.5956224067518
aF0.07753775371129676
asL20131226191844L
(lp1475
F1286.3393449621788
aF1249.218416139036
aF0.029715323072063385
asL20130819008487L
(lp1476
F1283.4496050451562
aF1248.499739204636
aF0.027993490701716348
asL20130213734398L
(lp1477
F1327.6281168673179
aF1254.0257124351747
aF0.0586928989591575
asL20131121620996L
(lp1478
F1304.9919359652267
aF1258.7690824825013
aF0.03672067746656624
asL20130101635086L
(lp1479
F1312.5444817215232
aF1258.618378008746
aF0.04284547616259455
asL20131121686543L
(lp1480
F1322.2793663045406
aF1254.1043030052706
aF0.054361557596045926
asL20131105351704L
(lp1481
F1290.989145125144
aF1248.5074852931823
aF0.03402595525647639
asL20130904410145L
(lp1482
F1339.0169049807096
aF1265.3772007829023
aF0.05819585191849959
asL20130727077927L
(lp1483
F1272.601011274626
aF1248.5956224067518
aF0.01922591144569466
asL20130803697704L
(lp1484
F1334.9716577966674
aF1254.1043030052706
aF0.06448216037343182
asL20131119523881L
(lp1485
F1303.6061805582733
aF1256.0508721739657
aF0.03786097318016999
asL20130810292268L
(lp1486
F1296.4678996010177
aF1248.499739204636
aF0.03842064110236834
asL20131225110573L
(lp1487
F1296.3205854389419
aF1256.9261645158715
aF0.03134187356044406
asL20130524612660L
(lp1488
F1336.041201242311
aF1257.18718692796
aF0.06272257236970191
asL20130806933560L
(lp1489
F1343.1001166190788
aF1256.9261645158715
aF0.06855927940397262
asL20130604484666L
(lp1490
F1267.9914241659158
aF1249.0805019347533
aF0.015139874653291368
asL20130427488321L
(lp1491
F1275.5494632122438
aF1253.395606420844
aF0.01767507136446867
asL20130718296129L
(lp1492
F1332.7747531436116
aF1257.1970468588333
aF0.06011603867000227
asL20130723719241L
(lp1493
F1285.4236705177077
aF1247.0205413680826
aF0.030795907425465306
asL20130419779669L
(lp1494
F1377.9734626239967
aF1259.2045547716348
aF0.09432058310327626
asL20130618666189L
(lp1495
F1330.4503822254144
aF1257.4502255900868
aF0.05805411232167907
asL20130913093724L
(lp1496
F1284.4276813853098
aF1248.499739204636
aF0.02877689201886577
asL20130804754527L
(lp1497
F1292.5530127275636
aF1247.7888083587823
aF0.035874824384472315
asL20130603427936L
(lp1498
F1279.9521971340623
aF1249.297006709132
aF0.02453795235264478
asL20131223005281L
(lp1499
F1286.9715108735832
aF1254.844154672068
aF0.025602666340595135
asL20130707302507L
(lp1500
F1263.580248834434
aF1252.0389923845717
aF0.009217968865235997
asL20131115190381L
(lp1501
F1281.2374505738198
aF1249.1329942607176
aF0.025701391653738845
asL20131214346350L
(lp1502
F1280.1064299185525
aF1247.7888083587823
aF0.025899912984696228
asL20130111326323L
(lp1503
F1327.6060843517528
aF1253.8656733146456
aF0.05881045522378114
asL20130511571060L
(lp1504
F1301.389044253127
aF1256.0508721739657
aF0.036095808763454154
asL20130102708353L
(lp1505
F1302.9307329413723
aF1255.8614899228903
aF0.03747964516482787
asL20130623137921L
(lp1506
F1297.9480206049661
aF1249.1329942607176
aF0.03907912653699378
asL20131023358082L
(lp1507
F1262.5772439169757
aF1249.152519500032
aF0.010747065876564783
asL20131201345670L
(lp1508
F1265.390122377825
aF1247.7888083587823
aF0.014106004077880614
asL20130116733067L
(lp1509
F1306.5468296137392
aF1258.4630745786583
aF0.03820831616468339
asL20130716076178L
(lp1510
F1292.8108351056421
aF1248.5783297747319
aF0.03542629587275529
asL20131228280981L
(lp1511
F1281.120728858861
aF1250.1509449538428
aF0.024772835656386775
asL20130107082905L
(lp1512
F1291.3371209466306
aF1256.0358703612255
aF0.028105288565726045
asL20130816845980L
(lp1513
F1279.8559764471738
aF1247.7888083587823
aF0.025699195147109492
asL20131104295069L
(lp1514
F1299.159923207037
aF1254.626538400769
aF0.035495331433872956
asL20131020146846L
(lp1515
F1335.5912412195642
aF1253.5417734469897
aF0.06545411530000692
asL20130314930338L
(lp1516
F1328.341316797198
aF1252.914607765155
aF0.06020099739006382
asL20130904358106L
(lp1517
F1297.0461679077293
aF1256.4903818490543
aF0.03227703661288123
asL20131130288298L
(lp1518
F1287.7697500440554
aF1248.5074852931823
aF0.03144736031891174
asL20131025561776L
(lp1519
F1335.5692424116419
aF1253.8656733146456
aF0.06516134131099506
asL20130722580661L
(lp1520
F1284.4472573174594
aF1248.5956224067518
aF0.0287135676814253
asL20130508343489L
(lp1521
F1301.0516267039818
aF1255.0570447302873
aF0.03664740353182812
asL20130911955140L
(lp1522
F1344.682832261455
aF1253.2198327389926
aF0.07298240670398903
asL20131009235145L
(lp1523
F1281.6718045626308
aF1246.9049265024673
aF0.027882541259728225
asL20130911971533L
(lp1524
F1346.6331736699324
aF1252.2678544339485
aF0.07535553907405775
asL20130425276634L
(lp1525
F1340.6838466170789
aF1252.4038720097997
aF0.07048842356708111
asL20131122743514L
(lp1526
F1336.7290714539981
aF1255.088565755595
aF0.0650476053450885
asL20131228338398L
(lp1527
F1306.0612927755337
aF1255.6674274602726
aF0.040133130965408825
asL20130220247265L
(lp1528
F1280.9277890000494
aF1248.5074852931823
aF0.02596724816531955
asL20130308532455L
(lp1529
F1305.0047047444289
aF1257.193825678655
aF0.038029839225439024
asL20130221361384L
(lp1530
F1313.9361887844657
aF1251.3933452440608
aF0.04997856491573963
asL20131212142824L
(lp1531
F1283.3513107383276
aF1249.297006709132
aF0.027258773411216856
asL20130822342902L
(lp1532
F1299.83836732003
aF1258.0819854845922
aF0.03319050929685955
asL20130717149433L
(lp1533
F1298.0292773010808
aF1255.6674274602726
aF0.03373652044673147
asL20130427431166L
(lp1534
F1331.279560179043
aF1254.1043030052706
aF0.06153814877186346
asL20130624243967L
(lp1535
F1344.1255322694142
aF1254.4205893406663
aF0.07151105752807957
asL20130101635332L
(lp1536
F1311.0101856244291
aF1256.0508721739657
aF0.043755642918618574
asL20130224564486L
(lp1537
F1275.258338038253
aF1249.5093989803697
aF0.020607239192354236
asL20131118401800L
(lp1538
F1281.135356148691
aF1249.297006709132
aF0.0254850121857147
asL20130804736576L
(lp1539
F1292.2847880012798
aF1247.7888083587823
aF0.035659864349178734
asL20130121042193L
(lp1540
F1293.0197948594046
aF1254.626538400769
aF0.030601342537815372
asL20130709448981L
(lp1541
F1306.1328689050288
aF1258.7690824825013
aF0.03762706526690205
asL20130713839898L
(lp1542
F1322.0540663516215
aF1254.2990443396452
aF0.05401823617560634
asL20130401339679L
(lp1543
F1286.778477971702
aF1248.4143173263176
aF0.030730311334098953
asL20130407868704L
(lp1544
F1279.5543661037173
aF1249.3687894218199
aF0.024160661717719543
asL20131227257124L
(lp1545
F1300.55151602918
aF1256.2664351712485
aF0.0352513444744663
asL20130510481705L
(lp1546
F1335.2888234765041
aF1252.8257409967925
aF0.06582166999067328
asL20131227210310L
(lp1547
F1283.0798161752814
aF1247.7888083587823
aF0.02828283727189173
asL20131205663029L
(lp1548
F1357.5191463418569
aF1254.512320110556
aF0.08210905909813884
asL20131025578299L
(lp1549
F1284.3772284146705
aF1247.7888083587823
aF0.02932260636638747
asL20130330241341L
(lp1550
F1320.8856306711632
aF1253.0786202135694
aF0.054112335302662094
asL20130407827775L
(lp1551
F1283.3203629541376
aF1249.1590925048492
aF0.027347413675536916
asL20130408899146L
(lp1552
F1276.0354116989283
aF1248.4143173263176
aF0.02212494200784705
asL20130224589124L
(lp1553
F1311.5891064838918
aF1257.2399096697977
aF0.04322897833267826
asL20130427472197L
(lp1554
F1328.4697339040342
aF1252.53315231563
aF0.06062640453709013
asL20131120572742L
(lp1555
F1310.7561829117153
aF1258.7690824825013
aF0.04129995020745731
asL20130821261642L
(lp1556
F1310.1166841191941
aF1256.5486554891495
aF0.042631081889297526
asL20130327955792L
(lp1557
F1290.7292510481514
aF1247.4834693894604
aF0.034666416605789695
asL20131126978467L
(lp1558
F1301.186566108708
aF1255.9664559663545
aF0.036004233972602835
asL20130601249119L
(lp1559
F1295.20505199441
aF1253.8656733146456
aF0.03296954335665165
asL20130206189922L
(lp1560
F1303.1915822043443
aF1255.8614899228903
aF0.03768735060453206
asL20130716035426L
(lp1561
F1298.3474771369438
aF1257.9875791032882
aF0.03208290662331076
asL20130728126824L
(lp1562
F1314.6473730566724
aF1257.2251743059721
aF0.045673758308569644
asL20130619771246L
(lp1563
F1287.337437583756
aF1247.7888083587823
aF0.03169497030270049
asL20130618648944L
(lp1564
F1347.3977737706675
aF1258.0599220343906
aF0.07101239787673223
asL20130530150779L
(lp1565
F1338.7840053097225
aF1253.7016608662316
aF0.06786490526358893
asL20131110824323L
(lp1566
F1292.1708687155058
aF1249.297006709132
aF0.03431839008348477
asL20130602322312L
(lp1567
F1303.0253825695916
aF1255.1055339245167
aF0.03817993575029265
asL20130626342144L
(lp1568
F1523.9430148616327
aF1272.3492855691702
aF0.1977395139416572
asL20131003746704L
(lp1569
F1281.6298169577299
aF1249.1329942607176
aF0.026015502629682
asL20131014633873L
(lp1570
F1292.8494597281936
aF1248.5783297747319
aF0.03545723075415627
asL20130913184161L
(lp1571
F1280.936852004629
aF1249.297006709132
aF0.025326119510077065
asL20131101102681L
(lp1572
F1331.8667380735874
aF1254.512320110556
aF0.06166094722466692
asL20130803681699L
(lp1573
F1330.4482388835631
aF1253.5588351073313
aF0.06133689271126108
asL20130428529063L
(lp1574
F1295.286195477561
aF1256.0508721739657
aF0.031237049527848403
asL20131019065772L
(lp1575
F1289.3309297763424
aF1248.499739204636
aF0.03270420432584005
asL20130829863345L
(lp1576
F1280.5929093997179
aF1248.4143173263176
aF0.025775571159994373
asL20130310646197L
(lp1577
F1314.111691661306
aF1256.5486554891495
aF0.045810431550498375
asL20130526800311L
(lp1578
F1289.4827438209925
aF1249.3687894218199
aF0.032107376732002764
asL20131007080889L
(lp1579
F1308.0542726597773
aF1256.4557630801285
aF0.04106671408244259
asL20130320468413L
(lp1580
F1321.7726333761318
aF1252.4936303272395
aF0.0553128585817971
asL20131121678784L
(lp1581
F1310.862730607497
aF1256.9261645158715
aF0.0429114832790518
asL20130414389707L
(lp1582
F1306.3244276881435
aF1257.4502255900868
aF0.038867703153117945
asL20130821188043L
(lp1583
F1287.393455779314
aF1248.5074852931823
aF0.031145965037606752
asL20130607753686L
(lp1584
F1281.8688121021435
aF1256.0508721739657
aF0.02055485211637348
asL20131129199065L
(lp1585
F1302.557353924854
aF1258.7690824825013
aF0.034786580042143175
asL20131021195738L
(lp1586
F1281.1788882386222
aF1249.297006709132
aF0.025519857454451775
asL20130728159715L
(lp1587
F1335.1475793468096
aF1254.7140820236468
aF0.06410504072245433
asL20131106442990L
(lp1588
F1310.3160992940172
aF1257.2801966666682
aF0.04218304143178198
asL20130509400556L
(lp1589
F1309.9930361006686
aF1255.8614899228903
aF0.043103118148086525
asL20130628545007L
(lp1590
F1337.9677983914237
aF1254.2990443396452
aF0.06670558702038064
asL20130117765619L
(lp1591
F1329.0835240113915
aF1253.9402905568563
aF0.05992568706853276
asL20130226719225L
(lp1592
F1325.753622462116
aF1252.792201979821
aF0.05823904424611859
asL20130515855866L
(lp1593
F1314.196864242773
aF1256.9261645158715
aF0.045564092262301174
asL20130504034815L
(lp1594
F1327.7917696272568
aF1254.5430978576558
aF0.05838673210564511
asL20131018977897L
(lp1595
F1335.3431207610295
aF1255.3395909911821
aF0.06373058759875382
asL20130304141828L
(lp1596
F1283.0694035628703
aF1250.2280759147698
aF0.02626826919086035
asL20131206752776L
(lp1597
F1306.1074823195418
aF1258.618378008746
aF0.037731138477358
asL20131209906112L
(lp1598
F1306.4580951842247
aF1256.5486554891495
aF0.0397194644847608
asL20130609902187L
(lp1599
F1328.6967556942318
aF1254.5430978576558
aF0.059108099166306785
asL20131222940176L
(lp1600
F1305.7020393542232
aF1256.0508721739657
aF0.0395295829812383
asL20130601273881L
(lp1601
F1336.543419981523
aF1255.088565755595
aF0.06489968632364203
asL20130217077277L
(lp1602
F1274.3876014397038
aF1248.038084046109
aF0.02111275106939875
asL20131207793181L
(lp1603
F1324.6737507982873
aF1254.512320110556
aF0.055927255207464416
asL20130909768228L
(lp1604
F1306.2251283443538
aF1257.603299011899
aF0.03866229467643498
asL20130106985000L
(lp1605
F1319.5832859046004
aF1257.9423873150445
aF0.0490013685929786
asL20130528922906L
(lp1606
F1292.5873640377338
aF1248.5074852931823
aF0.03530605884529428
asL20130214783532L
(lp1607
F1336.7058534627756
aF1254.9245533071808
aF0.06516830030942618
asL20131123833390L
(lp1608
F1274.2761979311101
aF1248.5783297747319
aF0.020581702840393415
asL20130703977010L
(lp1609
F1300.0644752712187
aF1254.6474638824245
aF0.03619902219246053
asL20130307394518L
(lp1610
F1279.0906864099397
aF1249.297006709132
aF0.023848355948030035
asL20130710538808L
(lp1611
F1304.7817350479818
aF1258.7690824825013
aF0.036553688206844036
asL20131127052857L
(lp1612
F1333.741126954668
aF1256.1976801659343
aF0.06172869765090699
asL20130310613566L
(lp1613
F1308.457522627296
aF1256.8489170107148
aF0.04106190085227338
asL20130326907455L
(lp1614
F1329.2593469311548
aF1253.0786202135694
aF0.060794849970867385
asL20130204043840L
(lp1615
F1288.0550021208896
aF1247.8769454723517
aF0.03219713032948897
asL20130225662532L
(lp1616
F1422.011146484242
aF1270.8364232571396
aF0.11895687002709866
asL20130404584006L
(lp1617
F1305.0039111005683
aF1256.9261645158715
aF0.038250255219418425
asL20130927331915L
(lp1618
F1294.2705626946922
aF1259.266865797685
aF0.027796885511502712
asL20130711677518L
(lp1619
F1308.883107456847
aF1256.5486554891495
aF0.041649363706751784
asL20130216995411L
(lp1620
F1326.6167207491405
aF1253.6870451254301
aF0.058172153814043656
asL20130315070039L
(lp1621
F1308.5850423908694
aF1256.9261645158715
aF0.04109937348220868
asL20130329201242L
(lp1622
F1280.7444674271053
aF1248.7515388111926
aF0.02561993128462514
asL20131220826716L
(lp1623
F1271.0511001182742
aF1248.6985401938198
aF0.017900685557768768
asL20130919672417L
(lp1624
F1326.5711826219954
aF1257.1910303664683
aF0.05518664274537727
asL20131214305895L
(lp1625
F1331.98628480709
aF1253.076151898696
aF0.06297313438519049
asL20131205649019L
(lp1626
F1308.2756923087068
aF1256.0508721739657
aF0.0415785867369772
asL20131014658678L
(lp1627
F1280.0184365889972
aF1248.4143173263176
aF0.02531540917470814
asL20130624178807L
(lp1628
F1302.135746138877
aF1256.5486554891495
aF0.03627960640488003
asL20130410105467L
(lp1629
F1389.198371722606
aF1255.009975185499
aF0.10692217527376478
asL20131015690884L
(lp1630
F1298.9734619664916
aF1255.0570447302873
aF0.03499157063864137
asL20130717182606L
(lp1631
F1315.2600287978746
aF1258.7690824825013
aF0.04487792646127264
asL20130430675618L
(lp1632
F1283.092436148661
aF1249.297006709132
aF0.027051557202199757
asL20131202435749L
(lp1633
F1288.861956916237
aF1247.7888083587823
aF0.03291674703468311
asL20131229387433L
(lp1634
F1290.0456933880605
aF1248.5074852931823
aF0.033270291595507685
asL20130608835888L
(lp1635
F1268.5176848990516
aF1249.1329942607176
aF0.01551851622477278
asL20130701806255L
(lp1636
F1304.6577082128274
aF1259.2930298659376
aF0.03602392554473147
asL20130629692085L
(lp1637
F1299.256500246119
aF1248.5074852931823
aF0.040647745849132416
asL20131111848631L
(lp1638
F1308.3448742498456
aF1256.9261645158715
aF0.04090829770719186
asL20130317224636L
(lp1639
F1305.2456769994365
aF1256.0508721739657
aF0.03916625187348081
asL20131028798141L
(lp1640
F1307.8900746850516
aF1256.3592732380741
aF0.041015975720197176
asL20130418723533L
(lp1641
F1343.4256670516475
aF1253.6152624127421
aF0.07164112254508911
asL20130426424015L
(lp1642
F1344.1578302518617
aF1252.5330384167503
aF0.07315159682408749
asL20131112913616L
(lp1643
F1321.289225361923
aF1252.0026805638713
aF0.055340572247694134
asL20130222454755L
(lp1644
F1307.3119941650127
aF1257.2399096697977
aF0.0398269925334823
asL20130812447449L
(lp1645
F1309.6894091896431
aF1257.4239478310553
aF0.041565504974468696
asL20131228297949L
(lp1646
F1278.9185070892406
aF1248.4143173263176
aF0.024434347908034827
asL20130112449249L
(lp1647
F1294.1575018924798
aF1255.2652148126826
aF0.03098332258462277
asL20130714897126L
(lp1648
F1283.175732592624
aF1249.3687894218199
aF0.027059218588651606
asL20130723646183L
(lp1649
F1290.1832926566808
aF1249.218416139036
aF0.03279240522586524
asL20130403543787L
(lp1650
F1298.1175088108625
aF1259.266865797685
aF0.03085179485649963
asL20130222426867L
(lp1651
F1303.9447482604066
aF1255.8614899228903
aF0.038287071244193206
asL20130216995573L
(lp1652
F1311.3633722831362
aF1256.9261645158715
aF0.043309789631304385
asL20130226703101L
(lp1653
F1358.8995273730695
aF1269.78177973439
aF0.07018351425496192
asL20130612161277L
(lp1654
F1282.2047648728753
aF1248.5783297747319
aF0.02693177856467391
asL20130320386817L
(lp1655
F1277.1471309223064
aF1248.5783297747319
aF0.022881064380421274
asL20131002665732L
(lp1656
F1312.6326444396273
aF1256.9261645158715
aF0.04431961199981237
asL20130211613453L
(lp1657
F1296.227590861196
aF1256.66976460444
aF0.03147829873125624
asL20130801519383L
(lp1658
F1457.623800517393
aF1268.589209891855
aF0.14901166520378398
asL20130814644888L
(lp1659
F1269.6632647380811
aF1247.7888083587823
aF0.017530575873709233
asL20130313898783L
(lp1660
F1325.1692403799211
aF1252.863984692509
aF0.0577119755782254
asL20130202970915L
(lp1661
F1298.3834927181174
aF1258.5126825710697
aF0.0316808965846843
asL20130813545253L
(lp1662
F1309.5376030422758
aF1255.0236971626332
aF0.04343655502512665
asL20131201379110L
(lp1663
F1305.8235227450773
aF1254.8670817551274
aF0.04060704255519984
asL20130311711528L
(lp1664
F1337.863406129852
aF1255.088565755595
aF0.06595139389579598
asL20131126045486L
(lp1665
F1310.908906408278
aF1258.7690824825013
aF0.04142127785896068
asL20131202386747L
(lp1666
F1302.175284791876
aF1254.844154672068
aF0.037718731799150924
asL20130204109630L
(lp1667
F1271.6755465961546
aF1248.6501124874198
aF0.018440261109548214
asL20131103214398L
(lp1668
F1280.4220468922817
aF1248.4143173263176
aF0.025638707536223965
asL20130321509186L
(lp1669
F1328.8004645404108
aF1252.3296178788253
aF0.06106287479738003
asL20130403552069L
(lp1670
F1322.3582741341654
aF1257.4415733194105
aF0.05162601761558349
asL20130817903436L
(lp1671
F1290.5928425837635
aF1249.3687894218199
aF0.03299590442068047
asL20130613234509L
(lp1672
F1507.3770480009337
aF1272.1939821390827
aF0.18486415528110836
asL20130518166356L
(lp1673
F1302.2872240584443
aF1256.0508721739657
aF0.03681089111020877
asL20131011464022L
(lp1674
F1328.8121505757897
aF1252.914607765155
aF0.06057678818671795
asL20130805787479L
(lp1675
F1278.3434526422534
aF1248.4143173263176
aF0.02397372002271964
asL20130701781853L
(lp1676
F1283.147669779343
aF1254.677699504052
aF0.022691062642258286
asL20130726914910L
(lp1677
F1292.457305332006
aF1247.5920837690796
aF0.03596145097954192
asL20131031993184L
(lp1678
F1307.5532449803918
aF1261.2820951135946
aF0.03668580569410997
asL20130916354913L
(lp1679
F1333.4763905209766
aF1253.6152624127421
aF0.06370465525007371
asL20130105920357L
(lp1680
F1298.750816560301
aF1248.5074852931823
aF0.04024271528922413
asL20131028781927L
(lp1681
F1302.0301951804722
aF1256.0508721739657
aF0.03660625857209573
asL20131019066221L
(lp1682
F1304.1112913782902
aF1258.7690824825013
aF0.03602106973136528
asL20131004902254L
(lp1683
F1329.2531005001883
aF1252.7307921464642
aF0.06108439964392404
asL20131029871472L
(lp1684
F1294.2418594216483
aF1248.5783297747319
aF0.036572418852692294
asL20130922851186L
(lp1685
F1274.5324715773293
aF1250.8726629343894
aF0.018914642028739322
asL20130413333367L
(lp1686
F1298.4987158943961
aF1257.615621999218
aF0.0325084176595919
asL20131128167298L
(lp1687
F1275.1938854679731
aF1249.297006709132
aF0.020729160975946122
asL20130202971013L
(lp1688
F1289.5315572325685
aF1255.6674274602726
aF0.026969027810803264
asL20131011390343L
(lp1689
F1276.4690704653672
aF1248.4143173263176
aF0.02247230967290843
asL20130708384648L
(lp1690
F1361.8582041524921
aF1270.320787516361
aF0.07205850485616196
asL20131114083097L
(lp1691
F1301.2465054996037
aF1256.5486554891495
aF0.03557192140168597
asL20130613234581L
(lp1692
F1515.3828205727552
aF1272.4999900429257
aF0.19087059523013145
asL20130502831000L
(lp1693
F1309.9263808354538
aF1257.1055156967154
aF0.04201784534328755
asL20130529061784L
(lp1694
F1327.5472914525124
aF1273.9713933763335
aF0.04205423948664164
asL20130314952026L
(lp1695
F1318.746826365719
aF1252.1828666600104
aF0.05315833771408876
asL20130506189733L
(lp1696
F1356.8780412255762
aF1263.2261466363707
aF0.07413707738600502
asL20130608868266L
(lp1697
F1341.2288193902436
aF1253.9402905568563
aF0.06961139177896881
asL20130818984879L
(lp1698
F1283.4790314154213
aF1248.5783297747319
aF0.027952352534411078
asL20130923908019L
(lp1699
F1277.7549664051621
aF1249.297006709132
aF0.022779178644631113
asL20130302036917L
(lp1700
F1338.0604583804957
aF1255.3395909911821
aF0.06589521113087764
asL20131010350009L
(lp1701
F1318.6193977748837
aF1253.9452925468227
aF0.051576496688069136
asL20131025513404L
(lp1702
F1317.3899141369775
aF1253.314781589321
aF0.051124532710292624
asL20130609908670L
(lp1703
F1282.9611339542394
aF1249.5093989803697
aF0.02677189543445377
asL20130404633536L
(lp1704
F1327.8198862818908
aF1253.2743554865986
aF0.059480616090918974
asL20130921819075L
(lp1705
F1304.2137262784875
aF1256.0508721739657
aF0.03834466833430225
asL20130731437006L
(lp1706
F1310.2448507404952
aF1259.7396603281397
aF0.04009176816676529
asL20131216444367L
(lp1707
F1323.966966682299
aF1252.4936303272395
aF0.05706483021106112
asL20130909817810L
(lp1708
F1300.8486684367554
aF1259.3045418534268
aF0.032989737750158885
asL20131107589075L
(lp1709
F1286.8453735174608
aF1248.5956224067518
aF0.030634218496601827
asL20131018017749L
(lp1710
F1278.706996441802
aF1249.1329942607176
aF0.023675623265869538
asL20131211111382L
(lp1711
F1284.499234158391
aF1248.5074852931823
aF0.028827819848238064
asL20131019081741L
(lp1712
F1283.6493088292227
aF1247.7888083587823
aF0.028739238747947905
asL20130922900445L
(lp1713
F1306.574407678364
aF1252.1828666600104
aF0.043437378410578285
asL20131115166688L
(lp1714
F1279.9133755181454
aF1248.4143173263176
aF0.02523125356275001
asL20130329193444L
(lp1715
F1267.0412159415969
aF1248.5783297747319
aF0.014787126867880277
asL20130630749156L
(lp1716
F1317.7188414076888
aF1258.4630745786583
aF0.047085820812716166
asL20130922900456L
(lp1717
F1339.0519691053516
aF1253.8656733146456
aF0.06793893285674896
asL20130902232041L
(lp1718
F1330.9613994630652
aF1253.5479808962593
aF0.06175544913044089
asL20130610023404L
(lp1719
F1297.221822319449
aF1257.4239478310553
aF0.03165032331143489
asL20131123825647L
(lp1720
F1279.8140412085497
aF1250.3774395567016
aF0.023542172723689223
asL20130825579508L
(lp1721
F1306.4836032153582
aF1259.8756934275032
aF0.03699405427932167
asL20130703944698L
(lp1722
F1304.9400441911496
aF1256.5486554891495
aF0.03851135289557273
asL20130612186107L
(lp1723
F1283.2707420188228
aF1247.958289365927
aF0.02829618021195063
asL20130610023424L
(lp1724
F1432.2876294329703
aF1271.0111042270923
aF0.1268883683781433
asL20130910899201L
(lp1725
F1311.4582943674025
aF1258.3619780973142
aF0.042194787504920984
asL20130723703810L
(lp1726
F1335.3807593915506
aF1253.314781589321
aF0.06547914299563448
asL20130702896134L
(lp1727
F1308.5311871486676
aF1257.615621999218
aF0.0404857925257875
asL20131001576456L
(lp1728
F1302.9074643527995
aF1254.159153878259
aF0.03886931760119529
asL20131109683119L
(lp1729
F1274.3850914550383
aF1249.1329942607176
aF0.020215699457419065
asL20130223500303L
(lp1730
F1281.3465157716541
aF1249.1329942607176
aF0.02578870437250891
asL20131128167439L
(lp1731
F1334.2935696633353
aF1254.7563736285665
aF0.06338855709874519
asL20130823375891L
(lp1732
F1295.6283827020536
aF1256.239669497873
aF0.031354457402164845
asL20130327022613L
(lp1733
F1283.082635152621
aF1247.958289365927
aF0.02814544851858812
asL20130902232096L
(lp1734
F1292.217807563159
aF1248.5783297747319
aF0.03495133364704534
asL20130617584677L
(lp1735
F1309.7472619438354
aF1256.9261645158715
aF0.04202402568993295
asL20130517052454L
(lp1736
F1328.9993499794764
aF1258.7389332233413
aF0.05581810087991345
asL20130326899768L
(lp1737
F1332.9682799399611
aF1252.914607765155
aF0.06389395708108081
asL20131027676220L
(lp1738
F1276.830502691871
aF1248.5074852931823
aF0.02268550067366058
asL20130804747330L
(lp1739
F1261.282687915397
aF1248.6501124874198
aF0.010116985776593534
asL20131217574979L
(lp1740
F1293.2904765501116
aF1249.218416139036
aF0.03527970756890483
asL20130406788177L
(lp1741
F1302.1996627933383
aF1258.7690824825013
aF0.03450242059106246
asL20130314939485L
(lp1742
F1322.1858936953984
aF1254.512320110556
aF0.053944128327794
asL20131002707038L
(lp1743
F1324.3700680385161
aF1249.2107237451323
aF0.060165465173126424
asL20130508311648L
(lp1744
F1340.1168339132498
aF1252.1828666600104
aF0.07022454115491027
asL20130311679077L
(lp1745
F1266.449992603103
aF1249.297006709132
aF0.013730110455603465
asL20130724752488L
(lp1746
F1319.8573601536189
aF1255.9896639567587
aF0.05085049505555405
asL20130525727856L
(lp1747
F1290.3118792366195
aF1248.499739204636
aF0.03348990690107808
asL20130821196916L
(lp1748
F1275.0771534120456
aF1248.4143173263176
aF0.021357361667263503
asL20130919664758L
(lp1749
F1332.6536150086347
aF1258.2286264204868
aF0.05915060826415809
asL20130415447161L
(lp1750
F1270.0522522365243
aF1250.7959035670851
aF0.015395276411221756
asL20130825599018L
(lp1751
F1306.1695751913987
aF1256.5486554891495
aF0.039489851416006486
asL20130128579733L
(lp1752
F1314.6539067968413
aF1255.088565755595
aF0.04745907393824946
asL20130613300373L
(lp1753
F1317.20296369693
aF1258.7690824825013
aF0.046421446179141505
asL20131208850588L
(lp1754
F1305.4621443854992
aF1255.8614899228903
aF0.03949532242258208
asL20130622033056L
(lp1755
F1330.0859401991138
aF1254.4030775756273
aF0.060333766694640134
asL20131112930476L
(lp1756
F1326.2744279087465
aF1252.3296178788253
aF0.059045804694108944
asL20130825538735L
(lp1757
F1275.9704838472005
aF1249.4741684141604
aF0.021205972962745883
asL20131219675310L
(lp1758
F1295.747239584922
aF1255.6674274602726
aF0.03191913021564577
asL20130419846326L
(lp1759
F1312.284252259825
aF1258.4630745786583
aF0.04276738727450264
asL20131103263926L
(lp1760
F1286.1841860193852
aF1247.7888083587823
aF0.030770734120547504
asL20131016772791L
(lp1761
F1303.1430970583467
aF1256.7370360186467
aF0.036925832301970524
asL20130712702141L
(lp1762
F1281.732136835944
aF1253.314781589321
aF0.02267375735454669
asL20130116668611L
(lp1763
F1303.1354479035542
aF1256.0508721739657
aF0.03748620121420308
asL20131004842719L
(lp1764
F1310.1151328145581
aF1258.618378008746
aF0.04091530499283258
asL20130329173387L
(lp1765
F1293.7631110685027
aF1249.3687894218199
aF0.035533400563997994
asL20130719337677L
(lp1766
F1344.0201663449645
aF1252.4936303272395
aF0.07307545028697017
asL20130110316820L
(lp1767
F1310.6557599217876
aF1258.7690824825013
aF0.04122017148447691
asL20131224071383L
(lp1768
F1262.5077656586527
aF1247.942923905614
aF0.011671080042231443
asL20130412260569L
(lp1769
F1312.4429866868413
aF1258.618378008746
aF0.042764836123917814
asL20130311679205L
(lp1770
F1324.055710509756
aF1257.2251743059721
aF0.05315717309007623
asL20131012521189L
(lp1771
F1326.5171393866226
aF1254.1760857179586
aF0.05768014116395152
asL20130102717674L
(lp1772
F1306.256237258005
aF1256.5486554891495
aF0.03955881974940746
asL20130722614508L
(lp1773
F1323.907125461434
aF1258.000834758082
aF0.052389703474263555
asL20130619821293L
(lp1774
F1293.1208101407067
aF1248.5783297747319
aF0.03567455825860054
asL20130714859582L
(lp1775
F1304.2913916965915
aF1258.7690824825013
aF0.036164146266059134
asL20131006033157L
(lp1776
F1301.6480265923767
aF1258.7690824825013
aF0.03406418596277487
asL20130526805398L
(lp1777
F1279.8573341154886
aF1248.5783297747319
aF0.025051695672469405
asL20130930560273L
(lp1778
F1343.0939500599266
aF1255.009975185499
aF0.07018587630063121
asL20130306288915L
(lp1779
F1315.8040116036523
aF1256.0196349612327
aF0.047598281888535016
asL20130701826114L
(lp1780
F1266.6194819661089
aF1253.2204007648052
aF0.010691719663298358
asL20130818985241L
(lp1781
F1291.3135719707998
aF1247.7888083587823
aF0.03488151466053433
asL20130803698970L
(lp1782
F1360.6030540600234
aF1255.009975185499
aF0.08413724270113243
asL20130722549022L
(lp1783
F1273.275096528573
aF1252.9528151842642
aF0.016219510501933845
asL20130423106858L
(lp1784
F1293.9010103432686
aF1248.4143173263176
aF0.03643557462106663
asL20131201338666L
(lp1785
F1303.437160129265
aF1254.1484048207274
aF0.039300576486068425
asL20130825563437L
(lp1786
F1309.4265637540605
aF1256.5486554891495
aF0.04208186291387709
asL20130717109552L
(lp1787
F1308.4720995130597
aF1259.266865797685
aF0.039074508391996325
asL20130327964980L
(lp1788
F1320.3904098526928
aF1258.2775753662872
aF0.04936338030845407
asL20130611121460L
(lp1789
F1309.8907997752071
aF1257.5127819031568
aF0.041652075927832655
asL20131228339514L
(lp1790
F1310.2316847204834
aF1254.8670817551274
aF0.04411989426634726
asL20130412244288L
(lp1791
F1394.8332331905128
aF1270.657072076296
aF0.09772594340604343
asL20130122140993L
(lp1792
F1319.6092789888116
aF1255.088565755595
aF0.05140729904934917
asL20131003747649L
(lp1793
F1294.7563004201154
aF1248.5074852931823
aF0.03704328221634383
asL20131108670793L
(lp1794
F1298.3180846058167
aF1257.0382992617904
aF0.03283892413482416
asL20130821262676L
(lp1795
F1311.4642635263679
aF1258.7690824825013
aF0.041862468483848475
asL20130802601306L
(lp1796
F1297.7356531170976
aF1256.5486554891495
aF0.032777877281572394
asL20130721484123L
(lp1797
F1357.0722958988683
aF1258.766336945358
aF0.0780970669997967
asL20130729209180L
(lp1798
F1269.3814958874755
aF1248.499739204636
aF0.01672547941110694
asL20131223022942L
(lp1799
F1282.853834258338
aF1248.5783297747319
aF0.027451625313559807
asL20130902240612L
(lp1800
F1293.1481715514324
aF1249.3687894218199
aF0.03504120040478409
asL20130526817640L
(lp1801
F1280.6502067384222
aF1252.1828666600104
aF0.022734171530667622
asL20131227266411L
(lp1802
F1305.189720439119
aF1256.3592732380741
aF0.038866626960289585
asL20131023400304L
(lp1803
F1310.4482244436056
aF1252.4936303272395
aF0.04627136834318607
asL20130523532657L
(lp1804
F1283.8493906387694
aF1248.5783297747319
aF0.02824897727513908
asL20131026603379L
(lp1805
F1312.3040594835898
aF1257.0561265687058
aF0.043950251502047205
asL20130609917301L
(lp1806
F1303.0967674142094
aF1259.266865797685
aF0.03480588809804036
asL20131030949287L
(lp1807
F1341.9468123823565
aF1253.8656733146456
aF0.07024766762683976
asL20130821197175L
(lp1808
F1301.286839709594
aF1256.0508721739657
aF0.03601443901498526
asL20131121638780L
(lp1809
F1308.332919785443
aF1257.9480089052704
aF0.04005325380976601
asL20131222908290L
(lp1810
F1305.8802704944892
aF1255.7629981278665
aF0.03990981772941171
asL20130513743239L
(lp1811
F1331.533391903318
aF1253.7870827445497
aF0.062009180209913355
asL20130605563853L
(lp1812
F1281.6544255479753
aF1249.218416139036
aF0.025965042613756362
asL20130814643601L
(lp1813
F1273.5702260046562
aF1248.7546957847417
aF0.01987222174513624
asL20130906590622L
(lp1814
F1305.4751257824319
aF1256.9261645158715
aF0.03862514970022912
asL20131130273191L
(lp1815
F1274.3706065521533
aF1249.3687894218199
aF0.02001155891040281
asL20130812472748L
(lp1816
F1615.2123722844083
aF1272.4999900429257
aF0.2693221099592478
as.